Archive member included because of file (symbol)

./libcsud.a(device.keyboard.c.o)
                              build/keyboard.o (KeyboardGetAddress)
./libcsud.a(platform.c.o)     ./libcsud.a(device.keyboard.c.o) (MemoryAllocate)
./libcsud.a(usbd.c.o)         build/kmain.o (UsbInitialise)
./libcsud.a(device.hid.c.o)   ./libcsud.a(device.keyboard.c.o) (HidReadDevice)
./libcsud.a(device.hub.c.o)   ./libcsud.a(usbd.c.o) (HubPortReset)
./libcsud.a(hcd.designware20.c.o)
                              ./libcsud.a(usbd.c.o) (HcdSumbitControlMessage)
./libcsud.a(hcd.designware20.roothub.c.o)
                              ./libcsud.a(hcd.designware20.c.o) (HcdProcessRootHubMessage)
./libcsud.a(platform.armv6.c.o)
                              ./libcsud.a(hcd.designware20.c.o) (__aeabi_uidiv)
./libcsud.a(platform.broadcom2835.c.o)
                              ./libcsud.a(usbd.c.o) (MicroDelay)

Allocating common symbols
Common symbol       size              file

CorePhysical        0x4               ./libcsud.a(hcd.designware20.c.o)
kernel_heap_limit   0x4               build/kheap.o
DeviceNumbers       0x4               ./libcsud.a(usbd.c.o)
HostPhysical        0x4               ./libcsud.a(hcd.designware20.c.o)
kernel_heap_top     0x4               build/kheap.o
g_spArg             0x4               build/syscall.o
keyboards           0x10              ./libcsud.a(device.keyboard.c.o)
g_kmain_process     0x54              build/sched.o
PowerPhysical       0x4               ./libcsud.a(hcd.designware20.c.o)
Heap                0x4000            ./libcsud.a(platform.c.o)
Allocations         0xc00             ./libcsud.a(platform.c.o)
g_current_process   0x4               build/sched.o
uart_error          0x4               build/uart.o

Memory Configuration

Name             Origin             Length             Attributes
RAM              0x0000000000008000 0x000000001fff8000
PERIPHERALS      0x0000000020000000 0x0000000000ffffff
*default*        0x0000000000000000 0xffffffffffffffff

Linker script and memory map

LOAD build/kheap.o
LOAD build/syscall.o
LOAD build/init.o
LOAD build/hw.o
LOAD build/uart.o
LOAD build/pwm.o
LOAD build/gpio.o
LOAD build/sched.o
LOAD build/keyboard.o
LOAD build/util.o
LOAD build/asm_tools.o
LOAD build/kmain.o
                0x0000000000000200                KERNEL_STACK_SIZE = 0x200
                0x0000000000000200                SYS_STACK_SIZE = 0x200
                0x0000000000000200                IRQ_STACK_SIZE = 0x200
                0x0000000000100000                USER_STACKS_SIZE = 0x100000

.text           0x0000000000008000     0x89a0
 build/init.o(.text*)
 .text          0x0000000000008000       0xc4 build/init.o
                0x0000000000008000                _start
 *(.text*)
 .text          0x00000000000080c4      0x360 build/kheap.o
                0x00000000000080c4                aligned_value
                0x0000000000008110                kAlloc_aligned
                0x00000000000082c4                kAlloc
                0x00000000000083b0                kFree
                0x00000000000083f8                kheap_init
 .text          0x0000000000008424      0x258 build/syscall.o
                0x00000000000084f8                sys_reboot
                0x0000000000008508                sys_nop
                0x0000000000008520                sys_settime
                0x0000000000008570                sys_gettime
                0x00000000000085e4                swi_handler
 .text          0x000000000000867c      0x3b4 build/hw.o
                0x000000000000867c                divide
                0x00000000000086e4                get_date_ms
                0x0000000000008708                set_date_ms
                0x00000000000087a4                set_next_tick
                0x00000000000087fc                set_next_tick_default
                0x0000000000008848                timer_init
                0x0000000000008874                led_on
                0x00000000000088b0                led_off
                0x00000000000088ec                led_switch
                0x0000000000008918                led_status
                0x000000000000892c                led_init
                0x0000000000008960                led_blink
                0x0000000000008a00                hw_init
                0x0000000000008a10                terminate_kernel
 .text          0x0000000000008a30      0x670 build/uart.o
                0x0000000000008a30                uart_init
                0x0000000000008b4c                uart_send_str
                0x0000000000008be8                uart_send_int
                0x0000000000008de0                uart_receive_str
                0x0000000000008ec0                uart_receive_int
                0x000000000000906c                uart_is_receive_fifo_empty
 .text          0x00000000000090a0      0x224 build/pwm.o
                0x0000000000009238                audio_test
 .text          0x00000000000092c4       0x98 build/gpio.o
                0x00000000000092c4                GetGpioAddress
                0x00000000000092cc                SetGpioFunction
                0x000000000000931c                SetGpio
 .text          0x000000000000935c      0x4dc build/sched.o
                0x000000000000935c                start_current_process
                0x000000000000937c                create_process
                0x00000000000094c0                setScheduler
                0x00000000000094e4                sys_yield
                0x00000000000094fc                sys_exit
                0x0000000000009514                sys_yieldto
                0x0000000000009540                do_sys_yieldto
                0x0000000000009698                do_sys_exit
                0x0000000000009764                sched_init
                0x00000000000097d8                irq_handler
 .text          0x0000000000009838      0x144 build/keyboard.o
                0x0000000000009838                KeyboardUpdate
                0x00000000000098bc                KeyWasDown
                0x00000000000098ec                KeyboardGetChar
 .text          0x000000000000997c       0x10 build/util.o
                0x000000000000997c                kernel_panic
 .text          0x000000000000998c       0x48 build/asm_tools.o
                0x000000000000998c                Set32
                0x0000000000009994                Get32
                0x000000000000999c                delay
                0x00000000000099b0                memory_barrier
                0x00000000000099c8                invalidate_cache
 .text          0x00000000000099d4      0x148 build/kmain.o
                0x00000000000099d4                user_process_1
                0x00000000000099f0                user_process_2
                0x0000000000009a0c                user_process_3
                0x0000000000009a28                init_clavier
                0x0000000000009acc                kmain
 .text          0x0000000000009b1c     0x1000 ./libcsud.a(device.keyboard.c.o)
                0x0000000000009b1c                KeyboardDetached
                0x0000000000009b98                KeyboardDeallocate
                0x0000000000009c10                KeyboardIndex
                0x0000000000009c68                KeyboardGetAddress
                0x0000000000009cb0                KeyboardScan
                0x000000000000a37c                KeyboardCount
                0x000000000000a38c                KeyboardSetLeds
                0x000000000000a5a8                KeyboardGetLedSupport
                0x000000000000a5f4                KeyboardPoll
                0x000000000000a938                KeyboardGetModifiers
                0x000000000000a984                KeyboardGetKeyDownCount
                0x000000000000a9e8                KeyboadGetKeyIsDown
                0x000000000000aaa0                KeyboardGetKeyDown
 .text          0x000000000000ab1c      0x5c0 ./libcsud.a(platform.c.o)
                0x000000000000ab1c                MemoryReserve
                0x000000000000ab24                MemoryAllocate
                0x000000000000af74                MemoryDeallocate
                0x000000000000b08c                MemoryCopy
 .text          0x000000000000b0dc     0x10e8 ./libcsud.a(usbd.c.o)
                0x000000000000b0dc                UsbGetRootHub
                0x000000000000b0ec                UsbPrintDeviceTree
                0x000000000000b1b8                UsbControlMessage
                0x000000000000b2b0                UsbGetDescriptor
                0x000000000000b39c                UsbGetString
                0x000000000000b408                UsbReadStringLang
                0x000000000000b48c                UsbReadString
                0x000000000000b58c                UsbReadDeviceDescriptor
                0x000000000000b6cc                UsbSetAddress
                0x000000000000b7ac                UsbSetConfiguration
                0x000000000000b880                UsbConfigure
                0x000000000000ba50                UsbGetDescription
                0x000000000000bd00                UsbScanDevice
                0x000000000000bf28                UsbAllocateDevice
                0x000000000000bfe4                UsbDeallocateDevice
                0x000000000000c0fc                UsbScanRootHub
                0x000000000000c14c                UsbInitialise
                0x000000000000c1a8                UsbCheckForChange
 .text          0x000000000000c1c4     0x1b24 ./libcsud.a(device.hid.c.o)
                0x000000000000c1c4                HidEnumerateActionCountField
                0x000000000000c2ec                HidDetached
                0x000000000000c328                HidEnumerateActionAddField
                0x000000000000cb30                HidDeallocate
                0x000000000000cc84                HidEnumerateActionCountReport
                0x000000000000cd3c                HidGetReport
                0x000000000000cdf8                HidSetReport
                0x000000000000cea8                BitSet
                0x000000000000cfd4                BitGetUnsigned
                0x000000000000d0dc                BitGetSigned
                0x000000000000d108                HidReadDevice
                0x000000000000d304                HidWriteDevice
                0x000000000000d4b0                HidSetProtocol
                0x000000000000d560                HidEnumerateReport
                0x000000000000d6b8                HidParseReportDescriptor
                0x000000000000d9e8                HidScan
                0x000000000000dcd8                HidGetFieldValue
 .text          0x000000000000dce8      0xd34 ./libcsud.a(device.hub.c.o)
                0x000000000000dce8                HubDetached
                0x000000000000dd88                HubDeallocate
                0x000000000000de64                HubReadDescriptor
                0x000000000000df5c                HubGetStatus
                0x000000000000e034                HubPortGetStatus
                0x000000000000e114                HubChangeFeature
                0x000000000000e1c8                HubChangePortFeature
                0x000000000000e284                HubPowerOn
                0x000000000000e32c                HubPortReset
                0x000000000000e400                HubPortConnectionChanged
                0x000000000000e608                HubCheckConnection
                0x000000000000e73c                HubRecursiveCheck
                0x000000000000e804                HubScan
 .text          0x000000000000ea1c     0x160c ./libcsud.a(hcd.designware20.c.o)
                0x000000000000ea1c                WriteThroughRegMask
                0x000000000000eab0                WriteThroughReg
                0x000000000000eab8                ReadBackReg
                0x000000000000eb5c                ClearReg
                0x000000000000ebc4                SetReg
                0x000000000000ec60                HcdReset
                0x000000000000ed10                HcdTransmitFifoFlush
                0x000000000000eda4                HcdReceiveFifoFlush
                0x000000000000ee1c                HcdPrepareChannel
                0x000000000000f134                HcdTransmitChannel
                0x000000000000f1e0                HcdChannelInterruptToError
                0x000000000000f2bc                HcdChannelSendWaitOne
                0x000000000000f578                HcdChannelSendWait
                0x000000000000f690                HcdSumbitControlMessage
                0x000000000000f8d8                HcdInitialise
                0x000000000000fa6c                HcdStart
                0x000000000000ffc8                HcdStop
                0x000000000000ffec                HcdDeinitialise
 .text          0x0000000000010028      0x6f0 ./libcsud.a(hcd.designware20.roothub.c.o)
                0x0000000000010028                HcdProcessRootHubMessage
 .text          0x0000000000010718      0x16c ./libcsud.a(platform.armv6.c.o)
                0x0000000000010718                __aeabi_uidivmod
                0x000000000001084c                __aeabi_uidiv
 .text          0x0000000000010884      0x11c ./libcsud.a(platform.broadcom2835.c.o)
                0x0000000000010884                MicroDelay
                0x00000000000108f4                PowerOnUsb
                0x00000000000109a0                __bss_start = .

.glue_7         0x00000000000109a0        0x0
 .glue_7        0x0000000000000000        0x0 linker stubs

.glue_7t        0x00000000000109a0        0x0
 .glue_7t       0x0000000000000000        0x0 linker stubs

.vfp11_veneer   0x00000000000109a0        0x0
 .vfp11_veneer  0x0000000000000000        0x0 linker stubs

.v4_bx          0x00000000000109a0        0x0
 .v4_bx         0x0000000000000000        0x0 linker stubs

.iplt           0x00000000000109a0        0x0
 .iplt          0x0000000000000000        0x0 build/kheap.o

.bss            0x00000000000109a0     0x4cd0
 *(.bss*)
 .bss           0x00000000000109a0        0x4 build/kheap.o
                0x00000000000109a0                freelist
 .bss           0x00000000000109a4        0x0 build/syscall.o
 .bss           0x00000000000109a4        0x0 build/init.o
 .bss           0x00000000000109a4        0x4 build/hw.o
 .bss           0x00000000000109a8        0x0 build/uart.o
 .bss           0x00000000000109a8        0x0 build/pwm.o
 .bss           0x00000000000109a8        0x0 build/gpio.o
 .bss           0x00000000000109a8        0x1 build/sched.o
 .bss           0x00000000000109a9        0x0 build/keyboard.o
 .bss           0x00000000000109a9        0x0 build/util.o
 .bss           0x00000000000109a9        0x0 build/asm_tools.o
 .bss           0x00000000000109a9        0x0 build/kmain.o
 *fill*         0x00000000000109a9        0x3 00
 .bss           0x00000000000109ac       0x14 ./libcsud.a(device.keyboard.c.o)
                0x00000000000109ac                keyboardAddresses
                0x00000000000109bc                keyboardCount
 .bss           0x00000000000109c0        0x8 ./libcsud.a(platform.c.o)
                0x00000000000109c0                FirstFreeAllocation
                0x00000000000109c4                allocated
 .bss           0x00000000000109c8        0x4 ./libcsud.a(usbd.c.o)
                0x00000000000109c8                RootHub
 .bss           0x00000000000109cc        0x0 ./libcsud.a(device.hid.c.o)
 .bss           0x00000000000109cc        0x0 ./libcsud.a(device.hub.c.o)
 .bss           0x00000000000109cc       0x14 ./libcsud.a(hcd.designware20.c.o)
                0x00000000000109cc                Core
                0x00000000000109d0                Host
                0x00000000000109d4                Power
                0x00000000000109d8                databuffer
                0x00000000000109dc                PhyInitialised
 .bss           0x00000000000109e0        0x4 ./libcsud.a(hcd.designware20.roothub.c.o)
                0x00000000000109e0                RootHubDeviceNumber
 .bss           0x00000000000109e4        0x0 ./libcsud.a(platform.armv6.c.o)
 .bss           0x00000000000109e4        0x0 ./libcsud.a(platform.broadcom2835.c.o)
 COMMON         0x00000000000109e4        0x8 build/kheap.o
                0x00000000000109e4                kernel_heap_limit
                0x00000000000109e8                kernel_heap_top
 COMMON         0x00000000000109ec        0x4 build/syscall.o
                0x00000000000109ec                g_spArg
 COMMON         0x00000000000109f0        0x4 build/uart.o
                0x00000000000109f0                uart_error
 COMMON         0x00000000000109f4       0x58 build/sched.o
                0x00000000000109f4                g_kmain_process
                0x0000000000010a48                g_current_process
 COMMON         0x0000000000010a4c       0x10 ./libcsud.a(device.keyboard.c.o)
                0x0000000000010a4c                keyboards
 *fill*         0x0000000000010a5c        0x4 00
 COMMON         0x0000000000010a60     0x4c00 ./libcsud.a(platform.c.o)
                0x0000000000010a60                Heap
                0x0000000000014a60                Allocations
 COMMON         0x0000000000015660        0x4 ./libcsud.a(usbd.c.o)
                0x0000000000015660                DeviceNumbers
 COMMON         0x0000000000015664        0xc ./libcsud.a(hcd.designware20.c.o)
                0x0000000000015664                CorePhysical
                0x0000000000015668                HostPhysical
                0x000000000001566c                PowerPhysical
                0x0000000000015670                __bss_end__ = .
                0x0000000000015670                __rodata_start__ = .

.rodata         0x0000000000015670      0x2a8
 *(.rodata*)
 .rodata        0x0000000000015670       0x10 build/syscall.o
 .rodata        0x0000000000015680       0x18 build/hw.o
 .rodata        0x0000000000015698       0x28 build/uart.o
 .rodata        0x00000000000156c0      0x248 ./libcsud.a(usbd.c.o)
 .rodata.str1.4
                0x0000000000015908       0x10 ./libcsud.a(usbd.c.o)
                0x0000000000015918                __rodata_end__ = .
                0x0000000000015918                __data_start__ = .

.rel.dyn        0x0000000000015918        0x0
 .rel.iplt      0x0000000000000000        0x0 build/kheap.o

.data           0x0000000000015918      0x158
 *(.data)
 .data          0x0000000000015918        0x0 build/kheap.o
 .data          0x0000000000015918        0x0 build/syscall.o
 .data          0x0000000000015918        0x0 build/init.o
 .data          0x0000000000015918        0x0 build/hw.o
 .data          0x0000000000015918        0x0 build/uart.o
 .data          0x0000000000015918        0xc build/pwm.o
 .data          0x0000000000015924        0x0 build/gpio.o
 .data          0x0000000000015924        0x0 build/sched.o
 *fill*         0x0000000000015924        0x4 00
 .data          0x0000000000015928       0xe0 build/keyboard.o
 .data          0x0000000000015a08        0x0 build/util.o
 .data          0x0000000000015a08        0x0 build/asm_tools.o
 .data          0x0000000000015a08        0x0 build/kmain.o
 .data          0x0000000000015a08        0x0 ./libcsud.a(device.keyboard.c.o)
 .data          0x0000000000015a08        0x4 ./libcsud.a(platform.c.o)
                0x0000000000015a08                FirstAllocation
 .data          0x0000000000015a0c        0x0 ./libcsud.a(usbd.c.o)
 .data          0x0000000000015a0c        0x0 ./libcsud.a(device.hid.c.o)
 .data          0x0000000000015a0c        0x0 ./libcsud.a(device.hub.c.o)
 .data          0x0000000000015a0c        0x0 ./libcsud.a(hcd.designware20.c.o)
 .data          0x0000000000015a0c       0x64 ./libcsud.a(hcd.designware20.roothub.c.o)
                0x0000000000015a0c                DeviceDescriptor
                0x0000000000015a20                ConfigurationDescriptor
                0x0000000000015a3c                String0
                0x0000000000015a40                String1
                0x0000000000015a64                HubDescriptor
 .data          0x0000000000015a70        0x0 ./libcsud.a(platform.armv6.c.o)
 .data          0x0000000000015a70        0x0 ./libcsud.a(platform.broadcom2835.c.o)
                0x0000000000015a70                __data_end__ = .

.igot.plt       0x0000000000015a70        0x0
 .igot.plt      0x0000000000000000        0x0 build/kheap.o

.stack          0x0000000000015a70      0x600
                0x0000000000015a70                __stack_start__ = .
                0x0000000000015c70                . = (. + KERNEL_STACK_SIZE)
 *fill*         0x0000000000015a70      0x200 00
                0x0000000000015c70                . = ALIGN (0x4)
                0x0000000000015c70                __svc_stack_end__ = .
                0x0000000000015e70                . = (. + SYS_STACK_SIZE)
 *fill*         0x0000000000015c70      0x200 00
                0x0000000000015e70                . = ALIGN (0x4)
                0x0000000000015e70                __sys_stack_end__ = .
                0x0000000000016070                . = (. + IRQ_STACK_SIZE)
 *fill*         0x0000000000015e70      0x200 00
                0x0000000000016070                . = ALIGN (0x4)
                0x0000000000016070                __irq_stack_end__ = .
                0x0000000000016070                __stacks_end__ = .
                0x0000000000017000                . = ALIGN (0x1000)
                0x0000000000017000                __kernel_heap_start__ = .
                0x0000000000ffffff                . = 0xffffff
                0x0000000000ffffff                __kernel_heap_end__ = .
                0x0000000001000000                . = ALIGN (0x1000)
                0x0000000001000000                __after_kernel_heap__ = .
                0x0000000020000000                . = 0x20000000

.devices        0x0000000020000000   0xffffff
                0x0000000020000000                __devices_start__ = .
                0x0000000020ffffff                . = (. + 0xffffff)
 *fill*         0x0000000020000000   0xffffff 00
                0x0000000020ffffff                __devices_end__ = .
LOAD ./libcsud.a
OUTPUT(build/kernel.elf elf32-littlearm)

.debug_info     0x0000000000000000     0x12a6
 .debug_info    0x0000000000000000      0x2ad build/kheap.o
 .debug_info    0x00000000000002ad      0x261 build/syscall.o
 .debug_info    0x000000000000050e       0x4b build/init.o
 .debug_info    0x0000000000000559      0x2da build/hw.o
 .debug_info    0x0000000000000833      0x280 build/uart.o
 .debug_info    0x0000000000000ab3      0x146 build/pwm.o
 .debug_info    0x0000000000000bf9       0x4b build/gpio.o
 .debug_info    0x0000000000000c44      0x3c0 build/sched.o
 .debug_info    0x0000000000001004       0x4f build/keyboard.o
 .debug_info    0x0000000000001053       0x71 build/util.o
 .debug_info    0x00000000000010c4       0x50 build/asm_tools.o
 .debug_info    0x0000000000001114      0x192 build/kmain.o

.debug_abbrev   0x0000000000000000      0x8bb
 .debug_abbrev  0x0000000000000000      0x12d build/kheap.o
 .debug_abbrev  0x000000000000012d      0x134 build/syscall.o
 .debug_abbrev  0x0000000000000261       0x14 build/init.o
 .debug_abbrev  0x0000000000000275      0x146 build/hw.o
 .debug_abbrev  0x00000000000003bb      0x10a build/uart.o
 .debug_abbrev  0x00000000000004c5       0xaf build/pwm.o
 .debug_abbrev  0x0000000000000574       0x14 build/gpio.o
 .debug_abbrev  0x0000000000000588      0x200 build/sched.o
 .debug_abbrev  0x0000000000000788       0x14 build/keyboard.o
 .debug_abbrev  0x000000000000079c       0x5c build/util.o
 .debug_abbrev  0x00000000000007f8       0x14 build/asm_tools.o
 .debug_abbrev  0x000000000000080c       0xaf build/kmain.o

.debug_loc      0x0000000000000000      0x6f4
 .debug_loc     0x0000000000000000       0xa4 build/kheap.o
 .debug_loc     0x00000000000000a4       0xd0 build/syscall.o
 .debug_loc     0x0000000000000174      0x1dc build/hw.o
 .debug_loc     0x0000000000000350       0xf0 build/uart.o
 .debug_loc     0x0000000000000440       0x78 build/pwm.o
 .debug_loc     0x00000000000004b8      0x170 build/sched.o
 .debug_loc     0x0000000000000628       0x20 build/util.o
 .debug_loc     0x0000000000000648       0xac build/kmain.o

.debug_aranges  0x0000000000000000      0x180
 .debug_aranges
                0x0000000000000000       0x20 build/kheap.o
 .debug_aranges
                0x0000000000000020       0x20 build/syscall.o
 .debug_aranges
                0x0000000000000040       0x20 build/init.o
 .debug_aranges
                0x0000000000000060       0x20 build/hw.o
 .debug_aranges
                0x0000000000000080       0x20 build/uart.o
 .debug_aranges
                0x00000000000000a0       0x20 build/pwm.o
 .debug_aranges
                0x00000000000000c0       0x20 build/gpio.o
 .debug_aranges
                0x00000000000000e0       0x20 build/sched.o
 .debug_aranges
                0x0000000000000100       0x20 build/keyboard.o
 .debug_aranges
                0x0000000000000120       0x20 build/util.o
 .debug_aranges
                0x0000000000000140       0x20 build/asm_tools.o
 .debug_aranges
                0x0000000000000160       0x20 build/kmain.o

.debug_line     0x0000000000000000      0x818
 .debug_line    0x0000000000000000      0x10d build/kheap.o
 .debug_line    0x000000000000010d       0xe2 build/syscall.o
 .debug_line    0x00000000000001ef       0x67 build/init.o
 .debug_line    0x0000000000000256       0xf9 build/hw.o
 .debug_line    0x000000000000034f       0xfb build/uart.o
 .debug_line    0x000000000000044a       0x7e build/pwm.o
 .debug_line    0x00000000000004c8       0x66 build/gpio.o
 .debug_line    0x000000000000052e      0x11f build/sched.o
 .debug_line    0x000000000000064d       0x9b build/keyboard.o
 .debug_line    0x00000000000006e8       0x3d build/util.o
 .debug_line    0x0000000000000725       0x4e build/asm_tools.o
 .debug_line    0x0000000000000773       0xa5 build/kmain.o

.debug_str      0x0000000000000000      0x60d
 .debug_str     0x0000000000000000      0x164 build/kheap.o
                                        0x19f (size before relaxing)
 .debug_str     0x0000000000000164       0xae build/syscall.o
                                        0x194 (size before relaxing)
 .debug_str     0x0000000000000212      0x102 build/hw.o
                                        0x1c6 (size before relaxing)
 .debug_str     0x0000000000000314       0xc2 build/uart.o
                                        0x17a (size before relaxing)
 .debug_str     0x00000000000003d6       0x36 build/pwm.o
                                         0xe7 (size before relaxing)
 .debug_str     0x000000000000040c      0x168 build/sched.o
                                        0x28a (size before relaxing)
 .debug_str     0x0000000000000574       0x26 build/util.o
                                         0x51 (size before relaxing)
 .debug_str     0x000000000000059a       0x73 build/kmain.o
                                        0x149 (size before relaxing)

.comment        0x0000000000000000       0x11
 .comment       0x0000000000000000       0x11 build/kheap.o
                                         0x12 (size before relaxing)
 .comment       0x0000000000000000       0x12 build/syscall.o
 .comment       0x0000000000000000       0x12 build/hw.o
 .comment       0x0000000000000000       0x12 build/uart.o
 .comment       0x0000000000000000       0x12 build/pwm.o
 .comment       0x0000000000000000       0x12 build/sched.o
 .comment       0x0000000000000000       0x12 build/util.o
 .comment       0x0000000000000000       0x12 build/kmain.o
 .comment       0x0000000000000000       0x12 ./libcsud.a(device.keyboard.c.o)
 .comment       0x0000000000000000       0x12 ./libcsud.a(platform.c.o)
 .comment       0x0000000000000000       0x12 ./libcsud.a(usbd.c.o)
 .comment       0x0000000000000000       0x12 ./libcsud.a(device.hid.c.o)
 .comment       0x0000000000000000       0x12 ./libcsud.a(device.hub.c.o)
 .comment       0x0000000000000000       0x12 ./libcsud.a(hcd.designware20.c.o)
 .comment       0x0000000000000000       0x12 ./libcsud.a(hcd.designware20.roothub.c.o)
 .comment       0x0000000000000000       0x12 ./libcsud.a(platform.armv6.c.o)
 .comment       0x0000000000000000       0x12 ./libcsud.a(platform.broadcom2835.c.o)

.ARM.attributes
                0x0000000000000000       0x3c
 .ARM.attributes
                0x0000000000000000       0x3e build/kheap.o
 .ARM.attributes
                0x000000000000003e       0x3e build/syscall.o
 .ARM.attributes
                0x000000000000007c       0x28 build/init.o
 .ARM.attributes
                0x00000000000000a4       0x3e build/hw.o
 .ARM.attributes
                0x00000000000000e2       0x3e build/uart.o
 .ARM.attributes
                0x0000000000000120       0x3e build/pwm.o
 .ARM.attributes
                0x000000000000015e       0x28 build/gpio.o
 .ARM.attributes
                0x0000000000000186       0x3e build/sched.o
 .ARM.attributes
                0x00000000000001c4       0x28 build/keyboard.o
 .ARM.attributes
                0x00000000000001ec       0x3e build/util.o
 .ARM.attributes
                0x000000000000022a       0x28 build/asm_tools.o
 .ARM.attributes
                0x0000000000000252       0x3e build/kmain.o
 .ARM.attributes
                0x0000000000000290       0x32 ./libcsud.a(device.keyboard.c.o)
 .ARM.attributes
                0x00000000000002c2       0x32 ./libcsud.a(platform.c.o)
 .ARM.attributes
                0x00000000000002f4       0x32 ./libcsud.a(usbd.c.o)
 .ARM.attributes
                0x0000000000000326       0x32 ./libcsud.a(device.hid.c.o)
 .ARM.attributes
                0x0000000000000358       0x32 ./libcsud.a(device.hub.c.o)
 .ARM.attributes
                0x000000000000038a       0x32 ./libcsud.a(hcd.designware20.c.o)
 .ARM.attributes
                0x00000000000003bc       0x32 ./libcsud.a(hcd.designware20.roothub.c.o)
 .ARM.attributes
                0x00000000000003ee       0x32 ./libcsud.a(platform.armv6.c.o)
 .ARM.attributes
                0x0000000000000420       0x32 ./libcsud.a(platform.broadcom2835.c.o)

.debug_frame    0x0000000000000000      0x5a4
 .debug_frame   0x0000000000000000       0x84 build/kheap.o
 .debug_frame   0x0000000000000084       0xf8 build/syscall.o
 .debug_frame   0x000000000000017c      0x14c build/hw.o
 .debug_frame   0x00000000000002c8       0xa0 build/uart.o
 .debug_frame   0x0000000000000368       0x54 build/pwm.o
 .debug_frame   0x00000000000003bc      0x148 build/sched.o
 .debug_frame   0x0000000000000504       0x24 build/util.o
 .debug_frame   0x0000000000000528       0x7c build/kmain.o
