
Allocating common symbols
Common symbol       size              file

CorePhysical        0x4               build/designware20.o
keysDownOld         0xc               build/keyboard-nous.o
InterfaceClassAttach
                    0x40              build/usbd.o
kernel_heap_limit   0x4               build/kheap.o
HostPhysical        0x4               build/designware20.o
Devices             0x80              build/usbd.o
kernel_heap_top     0x4               build/kheap.o
g_spArg             0x4               build/syscall.o
keysDown            0xc               build/keyboard-nous.o
HidUsageAttach      0x28              build/hid.o
keyboards           0x10              build/keyboard.o
ADDRESS             0x4               build/keyboard-nous.o
g_kmain_process     0x60              build/sched.o
PowerPhysical       0x4               build/designware20.o
Heap                0x4000            build/platform.o
Allocations         0xc00             build/platform.o
g_current_process   0x4               build/sched.o
uart_error          0x4               build/uart.o

Memory Configuration

Name             Origin             Length             Attributes
RAM              0x0000000000008000 0x000000001fff8000
PERIPHERALS      0x0000000020000000 0x0000000000ffffff
*default*        0x0000000000000000 0xffffffffffffffff

Linker script and memory map

LOAD build/kheap.o
LOAD build/syscall.o
LOAD build/platform.o
LOAD build/designware20.o
LOAD build/armv6.o
LOAD build/fb.o
LOAD build/usbd.o
LOAD build/hid.o
LOAD build/uart.o
LOAD build/pwm.o
LOAD build/gpio.o
LOAD build/broadcom2835.o
LOAD build/sched.o
LOAD build/asm_tools.o
LOAD build/configuration.o
LOAD build/util.o
LOAD build/keyboard-nous.o
LOAD build/hw.o
LOAD build/keyboard.o
LOAD build/roothub.o
LOAD build/init.o
LOAD build/kmain.o
                0x0000000000000200                KERNEL_STACK_SIZE = 0x200
                0x0000000000000200                SYS_STACK_SIZE = 0x200
                0x0000000000000200                IRQ_STACK_SIZE = 0x200
                0x0000000000100000                USER_STACKS_SIZE = 0x100000

.text           0x0000000000008000     0xca28
 build/init.o(.text*)
 .text          0x0000000000008000       0xc4 build/init.o
                0x0000000000008000                _start
 *(.text*)
 .text          0x00000000000080c4      0x360 build/kheap.o
                0x00000000000080c4                aligned_value
                0x0000000000008110                kAlloc_aligned
                0x00000000000082c4                kAlloc
                0x00000000000083b0                kFree
                0x00000000000083f8                kheap_init
 .text          0x0000000000008424      0x264 build/syscall.o
                0x00000000000084f8                swi_handler
                0x000000000000859c                sys_gettime
                0x0000000000008610                sys_nop
                0x0000000000008628                sys_reboot
                0x0000000000008638                sys_settime
 .text          0x0000000000008688      0x600 build/platform.o
                0x0000000000008688                MemoryReserve
                0x00000000000086a4                MemoryAllocate
                0x0000000000008a90                MemoryDeallocate
                0x0000000000008b4c                MemoryCopy
                0x0000000000008c64                PlatformLoad
 .text          0x0000000000008c88     0x2ea8 build/designware20.o
                0x0000000000008ce0                DwcLoad
                0x0000000000008ce4                WriteThroughReg
                0x0000000000008d04                WriteThroughRegMask
                0x0000000000008e50                ReadBackReg
                0x0000000000009010                ClearReg
                0x0000000000009108                SetReg
                0x000000000000928c                HcdReset
                0x00000000000093d8                HcdTransmitFifoFlush
                0x00000000000094e4                HcdReceiveFifoFlush
                0x00000000000095bc                HcdPrepareChannel
                0x0000000000009c18                HcdTransmitChannel
                0x0000000000009db8                HcdChannelInterruptToError
                0x0000000000009f6c                HcdChannelSendWaitOne
                0x000000000000a6e8                HcdChannelSendWait
                0x000000000000a960                HcdSumbitControlMessage
                0x000000000000ae20                HcdInitialise
                0x000000000000b0b0                HcdStart
                0x000000000000ba78                HcdStop
                0x000000000000bab0                HcdDeinitialise
 .text          0x000000000000bb30      0x150 build/armv6.o
                0x000000000000bb30                Arm6Load
                0x000000000000bb34                __aeabi_uidivmod
                0x000000000000bc4c                __aeabi_uidiv
 .text          0x000000000000bc80      0xc38 build/fb.o
                0x000000000000bcdc                MailboxWrite
                0x000000000000bd58                MailboxRead
                0x000000000000bdf4                FramebufferInitialize
                0x000000000000c380                put_pixel_RGB24
                0x000000000000c41c                draw
                0x000000000000c4d0                drawChar
                0x000000000000c65c                drawString
 .text          0x000000000000c8b8     0x1ae4 build/usbd.o
                0x000000000000c90c                UsbGetRootHub
                0x000000000000c920                UsbLoad
                0x000000000000c99c                UsbInitialise
                0x000000000000ca30                UsbControlMessage
                0x000000000000cb70                UsbGetDescriptor
                0x000000000000cce4                UsbGetString
                0x000000000000cd88                UsbReadStringLang
                0x000000000000ce74                UsbReadString
                0x000000000000d0a0                UsbReadDeviceDescriptor
                0x000000000000d294                UsbSetAddress
                0x000000000000d3c8                UsbSetConfiguration
                0x000000000000d510                UsbConfigure
                0x000000000000d870                UsbGetDescription
                0x000000000000dc70                UsbAttachDevice
                0x000000000000e004                UsbAllocateDevice
                0x000000000000e18c                UsbDeallocateDevice
                0x000000000000e2c8                UsbAttachRootHub
                0x000000000000e350                UsbCheckForChange
 .text          0x000000000000e39c     0x2d2c build/hid.o
                0x000000000000e3f0                HidLoad
                0x000000000000e408                HidGetReport
                0x000000000000e558                HidSetReport
                0x000000000000e69c                BitSet
                0x000000000000e94c                BitGetUnsigned
                0x000000000000eb88                BitGetSigned
                0x000000000000ec00                HidReadDevice
                0x000000000000eef4                HidWriteDevice
                0x000000000000f138                HidSetProtocol
                0x000000000000f260                HidEnumerateReport
                0x000000000000f478                HidEnumerateActionCountReport
                0x000000000000f69c                HidEnumerateActionCountField
                0x000000000000f8d4                HidEnumerateActionAddField
                0x00000000000103dc                HidParseReportDescriptor
                0x0000000000010884                HidDetached
                0x00000000000108d4                HidDeallocate
                0x0000000000010a94                HidAttach
                0x0000000000011078                HidGetFieldValue
 .text          0x00000000000110c8      0x670 build/uart.o
                0x00000000000110c8                uart_init
                0x00000000000111e4                uart_send_str
                0x0000000000011280                uart_send_int
                0x0000000000011478                uart_receive_str
                0x0000000000011558                uart_receive_int
                0x0000000000011704                uart_is_receive_fifo_empty
 .text          0x0000000000011738      0x224 build/pwm.o
                0x00000000000118d0                audio_test
 .text          0x000000000001195c       0x98 build/gpio.o
                0x000000000001195c                GetGpioAddress
                0x0000000000011964                SetGpioFunction
                0x00000000000119b4                SetGpio
 .text          0x00000000000119f4       0xfc build/broadcom2835.o
                0x00000000000119f4                Bcm2835Load
                0x00000000000119f8                MicroDelay
                0x0000000000011a54                PowerOnUsb
 .text          0x0000000000011af0      0x944 build/sched.o
                0x0000000000011af0                create_process
                0x0000000000011bac                do_sys_exit
                0x0000000000011c84                do_sys_wait
                0x0000000000011d04                do_sys_yieldto
                0x00000000000120ec                irq_handler
                0x00000000000122b0                setScheduler
                0x00000000000122d4                sched_init
                0x00000000000123ac                sys_exit
                0x00000000000123c4                sys_wait
                0x00000000000123f0                sys_yield
                0x0000000000012408                sys_yieldto
 .text          0x0000000000012434       0x48 build/asm_tools.o
                0x0000000000012434                Set32
                0x000000000001243c                Get32
                0x0000000000012444                delay
                0x0000000000012458                memory_barrier
                0x0000000000012470                invalidate_cache
 .text          0x000000000001247c       0x10 build/configuration.o
                0x000000000001247c                ConfigurationLoad
 .text          0x000000000001248c       0x10 build/util.o
                0x000000000001248c                kernel_panic
 .text          0x000000000001249c      0x1fc build/keyboard-nous.o
                0x000000000001249c                KeyboardUpdate2
                0x000000000001253c                KeyboardBufferInitialize
                0x00000000000125c8                KeyWasDown2
                0x0000000000012634                KeyboardGetChar2
 .text          0x0000000000012698      0x3b4 build/hw.o
                0x0000000000012698                divide
                0x0000000000012700                get_date_ms
                0x0000000000012724                set_date_ms
                0x00000000000127c0                set_next_tick
                0x0000000000012818                set_next_tick_default
                0x0000000000012864                timer_init
                0x0000000000012890                led_on
                0x00000000000128cc                led_off
                0x0000000000012908                led_switch
                0x0000000000012934                led_status
                0x0000000000012948                led_init
                0x000000000001297c                led_blink
                0x0000000000012a1c                hw_init
                0x0000000000012a2c                terminate_kernel
 .text          0x0000000000012a4c     0x1304 build/keyboard.o
                0x0000000000012a4c                KbdLoad
                0x0000000000012ac8                KeyboardIndex
                0x0000000000012b48                KeyboardGetAddress
                0x0000000000012bf4                KeyboardDetached
                0x0000000000012c88                KeyboardDeallocate
                0x0000000000012cf0                KeyboardAttach
                0x0000000000013530                KeyboardCount
                0x0000000000013544                KeyboardSetLeds
                0x0000000000013760                KeyboardGetLedSupport
                0x00000000000137bc                KeyboardPoll
                0x0000000000013b4c                KeyboardGetModifiers
                0x0000000000013ba8                KeyboardGetKeyDownCount
                0x0000000000013c04                KeyboadGetKeyIsDown
                0x0000000000013cbc                KeyboardGetKeyDown
 .text          0x0000000000013d50      0xb8c build/roothub.o
                0x0000000000013d50                HcdProcessRootHubMessage
 .text          0x00000000000148dc      0x14c build/kmain.o
                0x00000000000148dc                user_process_1
                0x00000000000148e0                init_clavier
                0x00000000000149c8                kmain
                0x0000000000014a28                __bss_start = .

.glue_7         0x0000000000014a28        0x0
 .glue_7        0x0000000000000000        0x0 linker stubs

.glue_7t        0x0000000000014a28        0x0
 .glue_7t       0x0000000000000000        0x0 linker stubs

.vfp11_veneer   0x0000000000014a28        0x0
 .vfp11_veneer  0x0000000000000000        0x0 linker stubs

.v4_bx          0x0000000000014a28        0x0
 .v4_bx         0x0000000000000000        0x0 linker stubs

.iplt           0x0000000000014a28        0x0
 .iplt          0x0000000000000000        0x0 build/kheap.o

.bss            0x0000000000014a28     0x4e00
 *(.bss*)
 .bss           0x0000000000014a28        0x4 build/kheap.o
                0x0000000000014a28                freelist
 .bss           0x0000000000014a2c        0x0 build/syscall.o
 .bss           0x0000000000014a2c        0x8 build/platform.o
                0x0000000000014a2c                FirstFreeAllocation
                0x0000000000014a30                allocated
 .bss           0x0000000000014a34       0x14 build/designware20.o
                0x0000000000014a34                Core
                0x0000000000014a38                Host
                0x0000000000014a3c                Power
                0x0000000000014a40                PhyInitialised
                0x0000000000014a44                databuffer
 .bss           0x0000000000014a48        0x0 build/armv6.o
 .bss           0x0000000000014a48       0x18 build/fb.o
 .bss           0x0000000000014a60        0x0 build/usbd.o
 .bss           0x0000000000014a60        0x0 build/hid.o
 .bss           0x0000000000014a60        0x0 build/uart.o
 .bss           0x0000000000014a60        0x0 build/pwm.o
 .bss           0x0000000000014a60        0x0 build/gpio.o
 .bss           0x0000000000014a60        0x0 build/broadcom2835.o
 .bss           0x0000000000014a60       0x18 build/sched.o
 .bss           0x0000000000014a78        0x0 build/asm_tools.o
 .bss           0x0000000000014a78        0x0 build/configuration.o
 .bss           0x0000000000014a78        0x0 build/util.o
 .bss           0x0000000000014a78        0x0 build/keyboard-nous.o
 .bss           0x0000000000014a78        0x4 build/hw.o
 .bss           0x0000000000014a7c       0x14 build/keyboard.o
                0x0000000000014a7c                keyboardCount
                0x0000000000014a80                keyboardAddresses
 .bss           0x0000000000014a90        0x4 build/roothub.o
                0x0000000000014a90                RootHubDeviceNumber
 .bss           0x0000000000014a94        0x0 build/init.o
 .bss           0x0000000000014a94        0x0 build/kmain.o
 COMMON         0x0000000000014a94        0x8 build/kheap.o
                0x0000000000014a94                kernel_heap_limit
                0x0000000000014a98                kernel_heap_top
 COMMON         0x0000000000014a9c        0x4 build/syscall.o
                0x0000000000014a9c                g_spArg
 COMMON         0x0000000000014aa0     0x4c00 build/platform.o
                0x0000000000014aa0                Heap
                0x0000000000018aa0                Allocations
 COMMON         0x00000000000196a0        0xc build/designware20.o
                0x00000000000196a0                CorePhysical
                0x00000000000196a4                HostPhysical
                0x00000000000196a8                PowerPhysical
 COMMON         0x00000000000196ac       0xc0 build/usbd.o
                0x00000000000196ac                InterfaceClassAttach
                0x00000000000196ec                Devices
 COMMON         0x000000000001976c       0x28 build/hid.o
                0x000000000001976c                HidUsageAttach
 COMMON         0x0000000000019794        0x4 build/uart.o
                0x0000000000019794                uart_error
 COMMON         0x0000000000019798       0x64 build/sched.o
                0x0000000000019798                g_kmain_process
                0x00000000000197f8                g_current_process
 COMMON         0x00000000000197fc       0x1c build/keyboard-nous.o
                0x00000000000197fc                keysDownOld
                0x0000000000019808                keysDown
                0x0000000000019814                ADDRESS
 COMMON         0x0000000000019818       0x10 build/keyboard.o
                0x0000000000019818                keyboards
                0x0000000000019828                __bss_end__ = .
                0x0000000000019828                __rodata_start__ = .

.rodata         0x0000000000019828      0x2a0
 *(.rodata*)
 .rodata        0x0000000000019828       0x10 build/syscall.o
 .rodata        0x0000000000019838      0x250 build/usbd.o
 .rodata        0x0000000000019a88       0x28 build/uart.o
 .rodata        0x0000000000019ab0       0x18 build/hw.o
                0x0000000000019ac8                __rodata_end__ = .
                0x0000000000019ac8                __data_start__ = .

.rel.dyn        0x0000000000019ac8        0x0
 .rel.iplt      0x0000000000000000        0x0 build/kheap.o

.data           0x0000000000019ac8      0x5f8
 *(.data)
 .data          0x0000000000019ac8        0x0 build/kheap.o
 .data          0x0000000000019ac8        0x0 build/syscall.o
 .data          0x0000000000019ac8        0x4 build/platform.o
                0x0000000000019ac8                FirstAllocation
 .data          0x0000000000019acc        0x0 build/designware20.o
 .data          0x0000000000019acc        0x0 build/armv6.o
 .data          0x0000000000019acc      0x4d4 build/fb.o
                0x0000000000019acc                letters
 .data          0x0000000000019fa0        0x0 build/usbd.o
 .data          0x0000000000019fa0        0x0 build/hid.o
 .data          0x0000000000019fa0        0x0 build/uart.o
 .data          0x0000000000019fa0        0xc build/pwm.o
 .data          0x0000000000019fac        0x0 build/gpio.o
 .data          0x0000000000019fac        0x0 build/broadcom2835.o
 .data          0x0000000000019fac        0x0 build/sched.o
 .data          0x0000000000019fac        0x0 build/asm_tools.o
 .data          0x0000000000019fac        0x0 build/configuration.o
 .data          0x0000000000019fac        0x0 build/util.o
 .data          0x0000000000019fac       0xd0 build/keyboard-nous.o
                0x0000000000019fac                KeysNormal
                0x000000000001a014                KeysShift
 .data          0x000000000001a07c        0x0 build/hw.o
 .data          0x000000000001a07c        0x0 build/keyboard.o
 .data          0x000000000001a07c       0x44 build/roothub.o
                0x000000000001a07c                DeviceDescriptor
                0x000000000001a090                ConfigurationDescriptor
                0x000000000001a0ac                String0
                0x000000000001a0b0                String1
                0x000000000001a0b4                HubDescriptor
 .data          0x000000000001a0c0        0x0 build/init.o
 .data          0x000000000001a0c0        0x0 build/kmain.o
                0x000000000001a0c0                __data_end__ = .

.igot.plt       0x000000000001a0c0        0x0
 .igot.plt      0x0000000000000000        0x0 build/kheap.o

.stack          0x000000000001a0c0      0x600
                0x000000000001a0c0                __stack_start__ = .
                0x000000000001a2c0                . = (. + KERNEL_STACK_SIZE)
 *fill*         0x000000000001a0c0      0x200 00
                0x000000000001a2c0                . = ALIGN (0x4)
                0x000000000001a2c0                __svc_stack_end__ = .
                0x000000000001a4c0                . = (. + SYS_STACK_SIZE)
 *fill*         0x000000000001a2c0      0x200 00
                0x000000000001a4c0                . = ALIGN (0x4)
                0x000000000001a4c0                __sys_stack_end__ = .
                0x000000000001a6c0                . = (. + IRQ_STACK_SIZE)
 *fill*         0x000000000001a4c0      0x200 00
                0x000000000001a6c0                . = ALIGN (0x4)
                0x000000000001a6c0                __irq_stack_end__ = .
                0x000000000001a6c0                __stacks_end__ = .
                0x000000000001b000                . = ALIGN (0x1000)
                0x000000000001b000                __kernel_heap_start__ = .
                0x0000000000ffffff                . = 0xffffff
                0x0000000000ffffff                __kernel_heap_end__ = .
                0x0000000001000000                . = ALIGN (0x1000)
                0x0000000001000000                __after_kernel_heap__ = .
                0x0000000020000000                . = 0x20000000

.devices        0x0000000020000000   0xffffff
                0x0000000020000000                __devices_start__ = .
                0x0000000020ffffff                . = (. + 0xffffff)
 *fill*         0x0000000020000000   0xffffff 00
                0x0000000020ffffff                __devices_end__ = .
OUTPUT(build/kernel.elf elf32-littlearm)

.debug_info     0x0000000000000000     0xb3ea
 .debug_info    0x0000000000000000      0x2ad build/kheap.o
 .debug_info    0x00000000000002ad      0x267 build/syscall.o
 .debug_info    0x0000000000000514      0x27b build/platform.o
 .debug_info    0x000000000000078f     0x2f48 build/designware20.o
 .debug_info    0x00000000000036d7      0x11e build/armv6.o
 .debug_info    0x00000000000037f5      0x59d build/fb.o
 .debug_info    0x0000000000003d92     0x121f build/usbd.o
 .debug_info    0x0000000000004fb1     0x211a build/hid.o
 .debug_info    0x00000000000070cb      0x280 build/uart.o
 .debug_info    0x000000000000734b      0x146 build/pwm.o
 .debug_info    0x0000000000007491       0x4b build/gpio.o
 .debug_info    0x00000000000074dc      0x16c build/broadcom2835.o
 .debug_info    0x0000000000007648      0x53d build/sched.o
 .debug_info    0x0000000000007b85       0x50 build/asm_tools.o
 .debug_info    0x0000000000007bd5       0x7a build/configuration.o
 .debug_info    0x0000000000007c4f       0x71 build/util.o
 .debug_info    0x0000000000007cc0      0x1f0 build/keyboard-nous.o
 .debug_info    0x0000000000007eb0      0x2da build/hw.o
 .debug_info    0x000000000000818a     0x1850 build/keyboard.o
 .debug_info    0x00000000000099da     0x1860 build/roothub.o
 .debug_info    0x000000000000b23a       0x4b build/init.o
 .debug_info    0x000000000000b285      0x165 build/kmain.o

.debug_abbrev   0x0000000000000000     0x1d34
 .debug_abbrev  0x0000000000000000      0x12d build/kheap.o
 .debug_abbrev  0x000000000000012d      0x134 build/syscall.o
 .debug_abbrev  0x0000000000000261      0x126 build/platform.o
 .debug_abbrev  0x0000000000000387      0x3b1 build/designware20.o
 .debug_abbrev  0x0000000000000738       0xb9 build/armv6.o
 .debug_abbrev  0x00000000000007f1      0x182 build/fb.o
 .debug_abbrev  0x0000000000000973      0x2a4 build/usbd.o
 .debug_abbrev  0x0000000000000c17      0x341 build/hid.o
 .debug_abbrev  0x0000000000000f58      0x10a build/uart.o
 .debug_abbrev  0x0000000000001062       0xaf build/pwm.o
 .debug_abbrev  0x0000000000001111       0x14 build/gpio.o
 .debug_abbrev  0x0000000000001125       0xdb build/broadcom2835.o
 .debug_abbrev  0x0000000000001200      0x24e build/sched.o
 .debug_abbrev  0x000000000000144e       0x14 build/asm_tools.o
 .debug_abbrev  0x0000000000001462       0x40 build/configuration.o
 .debug_abbrev  0x00000000000014a2       0x5c build/util.o
 .debug_abbrev  0x00000000000014fe       0xff build/keyboard-nous.o
 .debug_abbrev  0x00000000000015fd      0x146 build/hw.o
 .debug_abbrev  0x0000000000001743      0x2f8 build/keyboard.o
 .debug_abbrev  0x0000000000001a3b      0x217 build/roothub.o
 .debug_abbrev  0x0000000000001c52       0x14 build/init.o
 .debug_abbrev  0x0000000000001c66       0xce build/kmain.o

.debug_loc      0x0000000000000000     0x156f
 .debug_loc     0x0000000000000000       0xa4 build/kheap.o
 .debug_loc     0x00000000000000a4       0xd0 build/syscall.o
 .debug_loc     0x0000000000000174       0x8c build/platform.o
 .debug_loc     0x0000000000000200      0x2e4 build/designware20.o
 .debug_loc     0x00000000000004e4       0x58 build/armv6.o
 .debug_loc     0x000000000000053c      0x175 build/fb.o
 .debug_loc     0x00000000000006b1      0x2e9 build/usbd.o
 .debug_loc     0x000000000000099a      0x2df build/hid.o
 .debug_loc     0x0000000000000c79       0xf0 build/uart.o
 .debug_loc     0x0000000000000d69       0x78 build/pwm.o
 .debug_loc     0x0000000000000de1       0x40 build/broadcom2835.o
 .debug_loc     0x0000000000000e21      0x214 build/sched.o
 .debug_loc     0x0000000000001035       0x20 build/configuration.o
 .debug_loc     0x0000000000001055       0x20 build/util.o
 .debug_loc     0x0000000000001075       0x8c build/keyboard-nous.o
 .debug_loc     0x0000000000001101      0x1dc build/hw.o
 .debug_loc     0x00000000000012dd      0x20d build/keyboard.o
 .debug_loc     0x00000000000014ea       0x2d build/roothub.o
 .debug_loc     0x0000000000001517       0x58 build/kmain.o

.debug_aranges  0x0000000000000000      0x2c0
 .debug_aranges
                0x0000000000000000       0x20 build/kheap.o
 .debug_aranges
                0x0000000000000020       0x20 build/syscall.o
 .debug_aranges
                0x0000000000000040       0x20 build/platform.o
 .debug_aranges
                0x0000000000000060       0x20 build/designware20.o
 .debug_aranges
                0x0000000000000080       0x20 build/armv6.o
 .debug_aranges
                0x00000000000000a0       0x20 build/fb.o
 .debug_aranges
                0x00000000000000c0       0x20 build/usbd.o
 .debug_aranges
                0x00000000000000e0       0x20 build/hid.o
 .debug_aranges
                0x0000000000000100       0x20 build/uart.o
 .debug_aranges
                0x0000000000000120       0x20 build/pwm.o
 .debug_aranges
                0x0000000000000140       0x20 build/gpio.o
 .debug_aranges
                0x0000000000000160       0x20 build/broadcom2835.o
 .debug_aranges
                0x0000000000000180       0x20 build/sched.o
 .debug_aranges
                0x00000000000001a0       0x20 build/asm_tools.o
 .debug_aranges
                0x00000000000001c0       0x20 build/configuration.o
 .debug_aranges
                0x00000000000001e0       0x20 build/util.o
 .debug_aranges
                0x0000000000000200       0x20 build/keyboard-nous.o
 .debug_aranges
                0x0000000000000220       0x20 build/hw.o
 .debug_aranges
                0x0000000000000240       0x20 build/keyboard.o
 .debug_aranges
                0x0000000000000260       0x20 build/roothub.o
 .debug_aranges
                0x0000000000000280       0x20 build/init.o
 .debug_aranges
                0x00000000000002a0       0x20 build/kmain.o

.debug_line     0x0000000000000000     0x1d3d
 .debug_line    0x0000000000000000      0x10d build/kheap.o
 .debug_line    0x000000000000010d       0xe5 build/syscall.o
 .debug_line    0x00000000000001f2       0xce build/platform.o
 .debug_line    0x00000000000002c0      0x3eb build/designware20.o
 .debug_line    0x00000000000006ab       0x61 build/armv6.o
 .debug_line    0x000000000000070c      0x20b build/fb.o
 .debug_line    0x0000000000000917      0x322 build/usbd.o
 .debug_line    0x0000000000000c39      0x541 build/hid.o
 .debug_line    0x000000000000117a       0xfb build/uart.o
 .debug_line    0x0000000000001275       0x7e build/pwm.o
 .debug_line    0x00000000000012f3       0x66 build/gpio.o
 .debug_line    0x0000000000001359       0x84 build/broadcom2835.o
 .debug_line    0x00000000000013dd      0x19c build/sched.o
 .debug_line    0x0000000000001579       0x4e build/asm_tools.o
 .debug_line    0x00000000000015c7       0x48 build/configuration.o
 .debug_line    0x000000000000160f       0x3d build/util.o
 .debug_line    0x000000000000164c       0xfa build/keyboard-nous.o
 .debug_line    0x0000000000001746       0xf9 build/hw.o
 .debug_line    0x000000000000183f      0x28f build/keyboard.o
 .debug_line    0x0000000000001ace      0x14f build/roothub.o
 .debug_line    0x0000000000001c1d       0x67 build/init.o
 .debug_line    0x0000000000001c84       0xb9 build/kmain.o

.debug_str      0x0000000000000000     0x3d5e
 .debug_str     0x0000000000000000      0x164 build/kheap.o
                                        0x19f (size before relaxing)
 .debug_str     0x0000000000000164       0xad build/syscall.o
                                        0x199 (size before relaxing)
 .debug_str     0x0000000000000211       0xe1 build/platform.o
                                        0x19d (size before relaxing)
 .debug_str     0x00000000000002f2     0x1f7f build/designware20.o
                                       0x2333 (size before relaxing)
 .debug_str     0x0000000000002271       0x43 build/armv6.o
                                         0xd8 (size before relaxing)
 .debug_str     0x00000000000022b4      0x1a4 build/fb.o
                                        0x274 (size before relaxing)
 .debug_str     0x0000000000002458      0x27f build/usbd.o
                                        0xd67 (size before relaxing)
 .debug_str     0x00000000000026d7      0xc8d build/hid.o
                                       0x18f6 (size before relaxing)
 .debug_str     0x0000000000003364       0xb6 build/uart.o
                                        0x17a (size before relaxing)
 .debug_str     0x000000000000341a       0x31 build/pwm.o
                                         0xe7 (size before relaxing)
 .debug_str     0x000000000000344b       0x44 build/broadcom2835.o
                                        0x16c (size before relaxing)
 .debug_str     0x000000000000348f      0x20c build/sched.o
                                        0x35e (size before relaxing)
 .debug_str     0x000000000000369b       0x26 build/configuration.o
                                         0xbe (size before relaxing)
 .debug_str     0x00000000000036c1       0x18 build/util.o
                                         0x51 (size before relaxing)
 .debug_str     0x00000000000036d9       0xb3 build/keyboard-nous.o
                                        0x174 (size before relaxing)
 .debug_str     0x000000000000378c      0x102 build/hw.o
                                        0x1c6 (size before relaxing)
 .debug_str     0x000000000000388e      0x1c3 build/keyboard.o
                                       0x144b (size before relaxing)
 .debug_str     0x0000000000003a51      0x2bf build/roothub.o
                                       0x1373 (size before relaxing)
 .debug_str     0x0000000000003d10       0x4e build/kmain.o
                                        0x126 (size before relaxing)

.comment        0x0000000000000000       0x11
 .comment       0x0000000000000000       0x11 build/kheap.o
                                         0x12 (size before relaxing)
 .comment       0x0000000000000000       0x12 build/syscall.o
 .comment       0x0000000000000000       0x12 build/platform.o
 .comment       0x0000000000000000       0x12 build/designware20.o
 .comment       0x0000000000000000       0x12 build/armv6.o
 .comment       0x0000000000000000       0x12 build/fb.o
 .comment       0x0000000000000000       0x12 build/usbd.o
 .comment       0x0000000000000000       0x12 build/hid.o
 .comment       0x0000000000000000       0x12 build/uart.o
 .comment       0x0000000000000000       0x12 build/pwm.o
 .comment       0x0000000000000000       0x12 build/broadcom2835.o
 .comment       0x0000000000000000       0x12 build/sched.o
 .comment       0x0000000000000000       0x12 build/configuration.o
 .comment       0x0000000000000000       0x12 build/util.o
 .comment       0x0000000000000000       0x12 build/keyboard-nous.o
 .comment       0x0000000000000000       0x12 build/hw.o
 .comment       0x0000000000000000       0x12 build/keyboard.o
 .comment       0x0000000000000000       0x12 build/roothub.o
 .comment       0x0000000000000000       0x12 build/kmain.o

.ARM.attributes
                0x0000000000000000       0x3c
 .ARM.attributes
                0x0000000000000000       0x3e build/kheap.o
 .ARM.attributes
                0x000000000000003e       0x3e build/syscall.o
 .ARM.attributes
                0x000000000000007c       0x3e build/platform.o
 .ARM.attributes
                0x00000000000000ba       0x3e build/designware20.o
 .ARM.attributes
                0x00000000000000f8       0x3e build/armv6.o
 .ARM.attributes
                0x0000000000000136       0x3e build/fb.o
 .ARM.attributes
                0x0000000000000174       0x3e build/usbd.o
 .ARM.attributes
                0x00000000000001b2       0x3e build/hid.o
 .ARM.attributes
                0x00000000000001f0       0x3e build/uart.o
 .ARM.attributes
                0x000000000000022e       0x3e build/pwm.o
 .ARM.attributes
                0x000000000000026c       0x28 build/gpio.o
 .ARM.attributes
                0x0000000000000294       0x3e build/broadcom2835.o
 .ARM.attributes
                0x00000000000002d2       0x3e build/sched.o
 .ARM.attributes
                0x0000000000000310       0x28 build/asm_tools.o
 .ARM.attributes
                0x0000000000000338       0x3e build/configuration.o
 .ARM.attributes
                0x0000000000000376       0x3e build/util.o
 .ARM.attributes
                0x00000000000003b4       0x3e build/keyboard-nous.o
 .ARM.attributes
                0x00000000000003f2       0x3e build/hw.o
 .ARM.attributes
                0x0000000000000430       0x3e build/keyboard.o
 .ARM.attributes
                0x000000000000046e       0x3e build/roothub.o
 .ARM.attributes
                0x00000000000004ac       0x28 build/init.o
 .ARM.attributes
                0x00000000000004d4       0x3e build/kmain.o

.debug_frame    0x0000000000000000      0xf34
 .debug_frame   0x0000000000000000       0x84 build/kheap.o
 .debug_frame   0x0000000000000084       0xf8 build/syscall.o
 .debug_frame   0x000000000000017c       0x74 build/platform.o
 .debug_frame   0x00000000000001f0      0x1d4 build/designware20.o
 .debug_frame   0x00000000000003c4       0x54 build/armv6.o
 .debug_frame   0x0000000000000418       0xe8 build/fb.o
 .debug_frame   0x0000000000000500      0x1c4 build/usbd.o
 .debug_frame   0x00000000000006c4      0x1d0 build/hid.o
 .debug_frame   0x0000000000000894       0xa0 build/uart.o
 .debug_frame   0x0000000000000934       0x54 build/pwm.o
 .debug_frame   0x0000000000000988       0x48 build/broadcom2835.o
 .debug_frame   0x00000000000009d0      0x1a4 build/sched.o
 .debug_frame   0x0000000000000b74       0x28 build/configuration.o
 .debug_frame   0x0000000000000b9c       0x24 build/util.o
 .debug_frame   0x0000000000000bc0       0x68 build/keyboard-nous.o
 .debug_frame   0x0000000000000c28      0x14c build/hw.o
 .debug_frame   0x0000000000000d74      0x148 build/keyboard.o
 .debug_frame   0x0000000000000ebc       0x28 build/roothub.o
 .debug_frame   0x0000000000000ee4       0x50 build/kmain.o

.debug_ranges   0x0000000000000000       0x18
 .debug_ranges  0x0000000000000000       0x18 build/fb.o
