
build/output.elf:     file format elf32-littlearm


Disassembly of section .init:

00008000 <_start>:
    8000:	ea003b7a 	b	16df0 <main>

Disassembly of section .data:

00009000 <FrameBufferInfo>:
    9000:	00000400 	.word	0x00000400
    9004:	00000300 	.word	0x00000300
    9008:	00000400 	.word	0x00000400
    900c:	00000300 	.word	0x00000300
    9010:	00000000 	.word	0x00000000
    9014:	00000018 	.word	0x00000018
	...

0000a000 <foreColour>:
    a000:	0000ffff 	.word	0x0000ffff

0000a004 <graphicsAddress>:
	...

0000a010 <font>:
	...
    a220:	08000000 	.word	0x08000000
    a224:	08080808 	.word	0x08080808
    a228:	08080008 	.word	0x08080008
    a22c:	00000000 	.word	0x00000000
    a230:	14000000 	.word	0x14000000
    a234:	00141414 	.word	0x00141414
	...
    a240:	48480000 	.word	0x48480000
    a244:	2424fe68 	.word	0x2424fe68
    a248:	1212147f 	.word	0x1212147f
    a24c:	00000000 	.word	0x00000000
    a250:	10000000 	.word	0x10000000
    a254:	1c12927c 	.word	0x1c12927c
    a258:	7c929070 	.word	0x7c929070
    a25c:	00001010 	.word	0x00001010
    a260:	06000000 	.word	0x06000000
    a264:	38460909 	.word	0x38460909
    a268:	60909066 	.word	0x60909066
    a26c:	00000000 	.word	0x00000000
    a270:	38000000 	.word	0x38000000
    a274:	920c0404 	.word	0x920c0404
    a278:	bc46a2b2 	.word	0xbc46a2b2
    a27c:	00000000 	.word	0x00000000
    a280:	08000000 	.word	0x08000000
    a284:	00080808 	.word	0x00080808
	...
    a290:	10103000 	.word	0x10103000
    a294:	08080808 	.word	0x08080808
    a298:	10100808 	.word	0x10100808
    a29c:	00000020 	.word	0x00000020
    a2a0:	08080c00 	.word	0x08080c00
    a2a4:	10101010 	.word	0x10101010
    a2a8:	08081010 	.word	0x08081010
    a2ac:	0000000c 	.word	0x0000000c
    a2b0:	10000000 	.word	0x10000000
    a2b4:	d6387c92 	.word	0xd6387c92
    a2b8:	00000010 	.word	0x00000010
	...
    a2c4:	7f080808 	.word	0x7f080808
    a2c8:	00080808 	.word	0x00080808
	...
    a2d8:	18180000 	.word	0x18180000
    a2dc:	00000408 	.word	0x00000408
	...
    a2e8:	0000001c 	.word	0x0000001c
	...
    a2f8:	18180000 	.word	0x18180000
    a2fc:	00000000 	.word	0x00000000
    a300:	40000000 	.word	0x40000000
    a304:	10102020 	.word	0x10102020
    a308:	04080818 	.word	0x04080818
    a30c:	00000204 	.word	0x00000204
    a310:	38000000 	.word	0x38000000
    a314:	92828244 	.word	0x92828244
    a318:	38448282 	.word	0x38448282
    a31c:	00000000 	.word	0x00000000
    a320:	1c000000 	.word	0x1c000000
    a324:	10101010 	.word	0x10101010
    a328:	7c101010 	.word	0x7c101010
    a32c:	00000000 	.word	0x00000000
    a330:	7c000000 	.word	0x7c000000
    a334:	408080c2 	.word	0x408080c2
    a338:	fe041830 	.word	0xfe041830
    a33c:	00000000 	.word	0x00000000
    a340:	7c000000 	.word	0x7c000000
    a344:	38c08082 	.word	0x38c08082
    a348:	7cc280c0 	.word	0x7cc280c0
    a34c:	00000000 	.word	0x00000000
    a350:	60000000 	.word	0x60000000
    a354:	44485850 	.word	0x44485850
    a358:	4040fe42 	.word	0x4040fe42
    a35c:	00000000 	.word	0x00000000
    a360:	7e000000 	.word	0x7e000000
    a364:	c03e0202 	.word	0xc03e0202
    a368:	3cc28080 	.word	0x3cc28080
    a36c:	00000000 	.word	0x00000000
    a370:	78000000 	.word	0x78000000
    a374:	c67a0284 	.word	0xc67a0284
    a378:	78c48282 	.word	0x78c48282
    a37c:	00000000 	.word	0x00000000
    a380:	fe000000 	.word	0xfe000000
    a384:	20204040 	.word	0x20204040
    a388:	04081810 	.word	0x04081810
    a38c:	00000000 	.word	0x00000000
    a390:	7c000000 	.word	0x7c000000
    a394:	7c828282 	.word	0x7c828282
    a398:	7c868282 	.word	0x7c868282
    a39c:	00000000 	.word	0x00000000
    a3a0:	3c000000 	.word	0x3c000000
    a3a4:	c6828246 	.word	0xc6828246
    a3a8:	3c4280bc 	.word	0x3c4280bc
	...
    a3b4:	00181800 	.word	0x00181800
    a3b8:	18180000 	.word	0x18180000
	...
    a3c4:	00181800 	.word	0x00181800
    a3c8:	18180000 	.word	0x18180000
    a3cc:	00000408 	.word	0x00000408
    a3d0:	00000000 	.word	0x00000000
    a3d4:	0e708000 	.word	0x0e708000
    a3d8:	0080700e 	.word	0x0080700e
	...
    a3e4:	00fe0000 	.word	0x00fe0000
    a3e8:	0000fe00 	.word	0x0000fe00
	...
    a3f4:	e01c0200 	.word	0xe01c0200
    a3f8:	00021ce0 	.word	0x00021ce0
    a3fc:	00000000 	.word	0x00000000
    a400:	1c000000 	.word	0x1c000000
    a404:	08102022 	.word	0x08102022
    a408:	08080008 	.word	0x08080008
    a40c:	00000000 	.word	0x00000000
    a410:	78000000 	.word	0x78000000
    a414:	92e284cc 	.word	0x92e284cc
    a418:	04e29292 	.word	0x04e29292
    a41c:	0000780c 	.word	0x0000780c
    a420:	10000000 	.word	0x10000000
    a424:	44282828 	.word	0x44282828
    a428:	82c67c44 	.word	0x82c67c44
    a42c:	00000000 	.word	0x00000000
    a430:	7e000000 	.word	0x7e000000
    a434:	7e828282 	.word	0x7e828282
    a438:	7e828282 	.word	0x7e828282
    a43c:	00000000 	.word	0x00000000
    a440:	78000000 	.word	0x78000000
    a444:	02020284 	.word	0x02020284
    a448:	78840202 	.word	0x78840202
    a44c:	00000000 	.word	0x00000000
    a450:	3e000000 	.word	0x3e000000
    a454:	82828242 	.word	0x82828242
    a458:	3e428282 	.word	0x3e428282
    a45c:	00000000 	.word	0x00000000
    a460:	fe000000 	.word	0xfe000000
    a464:	fe020202 	.word	0xfe020202
    a468:	fe020202 	.word	0xfe020202
    a46c:	00000000 	.word	0x00000000
    a470:	fe000000 	.word	0xfe000000
    a474:	fe020202 	.word	0xfe020202
    a478:	02020202 	.word	0x02020202
    a47c:	00000000 	.word	0x00000000
    a480:	78000000 	.word	0x78000000
    a484:	c2020284 	.word	0xc2020284
    a488:	78848282 	.word	0x78848282
    a48c:	00000000 	.word	0x00000000
    a490:	82000000 	.word	0x82000000
    a494:	fe828282 	.word	0xfe828282
    a498:	82828282 	.word	0x82828282
    a49c:	00000000 	.word	0x00000000
    a4a0:	3e000000 	.word	0x3e000000
    a4a4:	08080808 	.word	0x08080808
    a4a8:	3e080808 	.word	0x3e080808
    a4ac:	00000000 	.word	0x00000000
    a4b0:	38000000 	.word	0x38000000
    a4b4:	20202020 	.word	0x20202020
    a4b8:	1c222020 	.word	0x1c222020
    a4bc:	00000000 	.word	0x00000000
    a4c0:	42000000 	.word	0x42000000
    a4c4:	0e0a1222 	.word	0x0e0a1222
    a4c8:	42222212 	.word	0x42222212
    a4cc:	00000000 	.word	0x00000000
    a4d0:	02000000 	.word	0x02000000
    a4d4:	02020202 	.word	0x02020202
    a4d8:	fe020202 	.word	0xfe020202
    a4dc:	00000000 	.word	0x00000000
    a4e0:	c6000000 	.word	0xc6000000
    a4e4:	aaaaaac6 	.word	0xaaaaaac6
    a4e8:	82828292 	.word	0x82828292
    a4ec:	00000000 	.word	0x00000000
    a4f0:	86000000 	.word	0x86000000
    a4f4:	928a8a86 	.word	0x928a8a86
    a4f8:	c2c2a2a2 	.word	0xc2c2a2a2
    a4fc:	00000000 	.word	0x00000000
    a500:	38000000 	.word	0x38000000
    a504:	82828244 	.word	0x82828244
    a508:	38448282 	.word	0x38448282
    a50c:	00000000 	.word	0x00000000
    a510:	7e000000 	.word	0x7e000000
    a514:	c28282c2 	.word	0xc28282c2
    a518:	0202027e 	.word	0x0202027e
    a51c:	00000000 	.word	0x00000000
    a520:	38000000 	.word	0x38000000
    a524:	82828244 	.word	0x82828244
    a528:	78448282 	.word	0x78448282
    a52c:	00004060 	.word	0x00004060
    a530:	7e000000 	.word	0x7e000000
    a534:	7e8282c2 	.word	0x7e8282c2
    a538:	02828242 	.word	0x02828242
    a53c:	00000000 	.word	0x00000000
    a540:	7c000000 	.word	0x7c000000
    a544:	7c060286 	.word	0x7c060286
    a548:	7dc280c0 	.word	0x7dc280c0
    a54c:	00000000 	.word	0x00000000
    a550:	7f000000 	.word	0x7f000000
    a554:	08080808 	.word	0x08080808
    a558:	08080808 	.word	0x08080808
    a55c:	00000000 	.word	0x00000000
    a560:	82000000 	.word	0x82000000
    a564:	82828282 	.word	0x82828282
    a568:	7c828282 	.word	0x7c828282
    a56c:	00000000 	.word	0x00000000
    a570:	82000000 	.word	0x82000000
    a574:	444444c6 	.word	0x444444c6
    a578:	10282828 	.word	0x10282828
    a57c:	00000000 	.word	0x00000000
    a580:	81000000 	.word	0x81000000
    a584:	5a5a8181 	.word	0x5a5a8181
    a588:	6666665a 	.word	0x6666665a
    a58c:	00000000 	.word	0x00000000
    a590:	c6000000 	.word	0xc6000000
    a594:	10382844 	.word	0x10382844
    a598:	82446c28 	.word	0x82446c28
    a59c:	00000000 	.word	0x00000000
    a5a0:	41000000 	.word	0x41000000
    a5a4:	08141422 	.word	0x08141422
    a5a8:	08080808 	.word	0x08080808
    a5ac:	00000000 	.word	0x00000000
    a5b0:	fe000000 	.word	0xfe000000
    a5b4:	102060c0 	.word	0x102060c0
    a5b8:	fe060c08 	.word	0xfe060c08
    a5bc:	00000000 	.word	0x00000000
    a5c0:	08083800 	.word	0x08083800
    a5c4:	08080808 	.word	0x08080808
    a5c8:	08080808 	.word	0x08080808
    a5cc:	00000038 	.word	0x00000038
    a5d0:	02000000 	.word	0x02000000
    a5d4:	08080404 	.word	0x08080404
    a5d8:	20101018 	.word	0x20101018
    a5dc:	00004020 	.word	0x00004020
    a5e0:	10101c00 	.word	0x10101c00
    a5e4:	10101010 	.word	0x10101010
    a5e8:	10101010 	.word	0x10101010
    a5ec:	0000001c 	.word	0x0000001c
    a5f0:	08000000 	.word	0x08000000
    a5f4:	00632214 	.word	0x00632214
	...
    a60c:	007f0000 	.word	0x007f0000
    a610:	10080000 	.word	0x10080000
	...
    a624:	40443800 	.word	0x40443800
    a628:	5c62427c 	.word	0x5c62427c
    a62c:	00000000 	.word	0x00000000
    a630:	02020200 	.word	0x02020200
    a634:	42663e02 	.word	0x42663e02
    a638:	3e664242 	.word	0x3e664242
	...
    a644:	02443800 	.word	0x02443800
    a648:	38440202 	.word	0x38440202
    a64c:	00000000 	.word	0x00000000
    a650:	40404000 	.word	0x40404000
    a654:	42667c40 	.word	0x42667c40
    a658:	7c664242 	.word	0x7c664242
	...
    a664:	42663c00 	.word	0x42663c00
    a668:	3c46027e 	.word	0x3c46027e
    a66c:	00000000 	.word	0x00000000
    a670:	08083000 	.word	0x08083000
    a674:	08083e08 	.word	0x08083e08
    a678:	08080808 	.word	0x08080808
	...
    a684:	42667c00 	.word	0x42667c00
    a688:	5c664242 	.word	0x5c664242
    a68c:	00384440 	.word	0x00384440
    a690:	02020200 	.word	0x02020200
    a694:	42463a02 	.word	0x42463a02
    a698:	42424242 	.word	0x42424242
    a69c:	00000000 	.word	0x00000000
    a6a0:	00000800 	.word	0x00000800
    a6a4:	08080e00 	.word	0x08080e00
    a6a8:	3e080808 	.word	0x3e080808
    a6ac:	00000000 	.word	0x00000000
    a6b0:	00001000 	.word	0x00001000
    a6b4:	10101c00 	.word	0x10101c00
    a6b8:	10101010 	.word	0x10101010
    a6bc:	000e1010 	.word	0x000e1010
    a6c0:	02020200 	.word	0x02020200
    a6c4:	0a122202 	.word	0x0a122202
    a6c8:	4222120e 	.word	0x4222120e
    a6cc:	00000000 	.word	0x00000000
    a6d0:	08080e00 	.word	0x08080e00
    a6d4:	08080808 	.word	0x08080808
    a6d8:	70080808 	.word	0x70080808
	...
    a6e4:	9292fe00 	.word	0x9292fe00
    a6e8:	92929292 	.word	0x92929292
	...
    a6f4:	42463a00 	.word	0x42463a00
    a6f8:	42424242 	.word	0x42424242
	...
    a704:	42663c00 	.word	0x42663c00
    a708:	3c664242 	.word	0x3c664242
	...
    a714:	42663e00 	.word	0x42663e00
    a718:	3e664242 	.word	0x3e664242
    a71c:	00020202 	.word	0x00020202
    a720:	00000000 	.word	0x00000000
    a724:	42667c00 	.word	0x42667c00
    a728:	5c664242 	.word	0x5c664242
    a72c:	00404040 	.word	0x00404040
    a730:	00000000 	.word	0x00000000
    a734:	044c3c00 	.word	0x044c3c00
    a738:	04040404 	.word	0x04040404
	...
    a744:	02423c00 	.word	0x02423c00
    a748:	3c42403c 	.word	0x3c42403c
    a74c:	00000000 	.word	0x00000000
    a750:	08000000 	.word	0x08000000
    a754:	08087e08 	.word	0x08087e08
    a758:	70080808 	.word	0x70080808
	...
    a764:	42424200 	.word	0x42424200
    a768:	5c624242 	.word	0x5c624242
	...
    a774:	24664200 	.word	0x24664200
    a778:	18183c24 	.word	0x18183c24
	...
    a784:	5a818100 	.word	0x5a818100
    a788:	24245a5a 	.word	0x24245a5a
	...
    a794:	18246600 	.word	0x18246600
    a798:	66241818 	.word	0x66241818
	...
    a7a4:	24444200 	.word	0x24444200
    a7a8:	10182824 	.word	0x10182824
    a7ac:	000c0810 	.word	0x000c0810
    a7b0:	00000000 	.word	0x00000000
    a7b4:	20407e00 	.word	0x20407e00
    a7b8:	7e020418 	.word	0x7e020418
    a7bc:	00000000 	.word	0x00000000
    a7c0:	08083800 	.word	0x08083800
    a7c4:	08060808 	.word	0x08060808
    a7c8:	08080808 	.word	0x08080808
    a7cc:	00000030 	.word	0x00000030
    a7d0:	08080800 	.word	0x08080800
    a7d4:	08080808 	.word	0x08080808
    a7d8:	08080808 	.word	0x08080808
    a7dc:	00000808 	.word	0x00000808
    a7e0:	08080e00 	.word	0x08080e00
    a7e4:	08300808 	.word	0x08300808
    a7e8:	08080808 	.word	0x08080808
    a7ec:	00000006 	.word	0x00000006
    a7f0:	00000000 	.word	0x00000000
    a7f4:	9c000000 	.word	0x9c000000
    a7f8:	00000062 	.word	0x00000062
    a7fc:	00000000 	.word	0x00000000
    a800:	ffffffff 	.word	0xffffffff
    a804:	ffffffff 	.word	0xffffffff
    a808:	ffffffff 	.word	0xffffffff
    a80c:	ffffffff 	.word	0xffffffff

0000a810 <KeyboardAddress>:
    a810:	00000000 	.word	0x00000000

0000a814 <KeyboardOldDown>:
	...

0000a820 <KeysNormal>:
    a820:	00000000 	.word	0x00000000
    a824:	64636261 	.word	0x64636261
    a828:	68676665 	.word	0x68676665
    a82c:	6c6b6a69 	.word	0x6c6b6a69
    a830:	706f6e6d 	.word	0x706f6e6d
    a834:	74737271 	.word	0x74737271
    a838:	78777675 	.word	0x78777675
    a83c:	32317a79 	.word	0x32317a79
    a840:	36353433 	.word	0x36353433
    a844:	30393837 	.word	0x30393837
    a848:	0908000a 	.word	0x0908000a
    a84c:	5b3d2d20 	.word	0x5b3d2d20
    a850:	3b235c5d 	.word	0x3b235c5d
    a854:	2e2c6027 	.word	0x2e2c6027
    a858:	0000002f 	.word	0x0000002f
	...
    a874:	2b2d2a2f 	.word	0x2b2d2a2f
    a878:	3332310a 	.word	0x3332310a
    a87c:	37363534 	.word	0x37363534
    a880:	2e303938 	.word	0x2e303938
    a884:	3d00005c 	.word	0x3d00005c

0000a888 <KeysShift>:
    a888:	00000000 	.word	0x00000000
    a88c:	44434241 	.word	0x44434241
    a890:	48474645 	.word	0x48474645
    a894:	4c4b4a49 	.word	0x4c4b4a49
    a898:	504f4e4d 	.word	0x504f4e4d
    a89c:	54535251 	.word	0x54535251
    a8a0:	58575655 	.word	0x58575655
    a8a4:	22215a59 	.word	0x22215a59
    a8a8:	5e2524a3 	.word	0x5e2524a3
    a8ac:	29282a26 	.word	0x29282a26
    a8b0:	0908000a 	.word	0x0908000a
    a8b4:	7b2b5f20 	.word	0x7b2b5f20
    a8b8:	3a7e7c7d 	.word	0x3a7e7c7d
    a8bc:	3e3cac40 	.word	0x3e3cac40
    a8c0:	0000003f 	.word	0x0000003f
	...
    a8dc:	2b2d2a2f 	.word	0x2b2d2a2f
    a8e0:	3332310a 	.word	0x3332310a
    a8e4:	37363534 	.word	0x37363534
    a8e8:	2e303938 	.word	0x2e303938
    a8ec:	3d00007c 	.word	0x3d00007c

0000a8f0 <tag_core>:
    a8f0:	00000000 	.word	0x00000000

0000a8f4 <tag_mem>:
    a8f4:	00000000 	.word	0x00000000

0000a8f8 <tag_videotext>:
    a8f8:	00000000 	.word	0x00000000

0000a8fc <tag_ramdisk>:
    a8fc:	00000000 	.word	0x00000000

0000a900 <tag_initrd2>:
    a900:	00000000 	.word	0x00000000

0000a904 <tag_serial>:
    a904:	00000000 	.word	0x00000000

0000a908 <tag_revision>:
    a908:	00000000 	.word	0x00000000

0000a90c <tag_videolfb>:
    a90c:	00000000 	.word	0x00000000

0000a910 <tag_cmdline>:
    a910:	00000000 	.word	0x00000000

0000a914 <FirstAllocation>:
    a914:	ffffffff                                ....

0000a918 <DeviceDescriptor>:
    a918:	02000112 08000009 00000000 01000100     ................
    a928:	00000100                                ....

0000a92c <ConfigurationDescriptor>:
    a92c:	00190209 c0000101 00040900 00090100     ................
    a93c:	05070000 00080381 000000ff              ............

0000a948 <String0>:
    a948:	04090304                                ....

0000a94c <String1>:
    a94c:	00550324 00420053 00320020 0030002e     $.U.S.B. .2...0.
    a95c:	00520020 006f006f 00200074 00750048      .R.o.o.t. .H.u.
    a96c:	00000062                                b...

0000a970 <HubDescriptor>:
    a970:	00012909 01000000 000000ff              .)..........

0000a97c <KeyboardDetached>:
    a97c:	e5903404 	ldr	r3, [r0, #1028]	; 0x404
    a980:	e5d32010 	ldrb	r2, [r3, #16]
    a984:	e5d31011 	ldrb	r1, [r3, #17]
    a988:	e5d3c012 	ldrb	ip, [r3, #18]
    a98c:	e1821401 	orr	r1, r2, r1, lsl #8
    a990:	e5d32013 	ldrb	r2, [r3, #19]
    a994:	e181380c 	orr	r3, r1, ip, lsl #16
    a998:	e1933c02 	orrs	r3, r3, r2, lsl #24
    a99c:	012fff1e 	bxeq	lr
    a9a0:	e5d31009 	ldrb	r1, [r3, #9]
    a9a4:	e5d32008 	ldrb	r2, [r3, #8]
    a9a8:	e5d3c00a 	ldrb	ip, [r3, #10]
    a9ac:	e1822401 	orr	r2, r2, r1, lsl #8
    a9b0:	e5d3100b 	ldrb	r1, [r3, #11]
    a9b4:	e182280c 	orr	r2, r2, ip, lsl #16
    a9b8:	e59f3030 	ldr	r3, [pc, #48]	; a9f0 <KeyboardDetached+0x74>
    a9bc:	e1822c01 	orr	r2, r2, r1, lsl #24
    a9c0:	e793c102 	ldr	ip, [r3, r2, lsl #2]
    a9c4:	e5901000 	ldr	r1, [r0]
    a9c8:	e15c0001 	cmp	ip, r1
    a9cc:	112fff1e 	bxne	lr
    a9d0:	e5930010 	ldr	r0, [r3, #16]
    a9d4:	e3a01000 	mov	r1, #0
    a9d8:	e2400001 	sub	r0, r0, #1
    a9dc:	e7831102 	str	r1, [r3, r2, lsl #2]
    a9e0:	e5830010 	str	r0, [r3, #16]
    a9e4:	e59f3008 	ldr	r3, [pc, #8]	; a9f4 <KeyboardDetached+0x78>
    a9e8:	e7831102 	str	r1, [r3, r2, lsl #2]
    a9ec:	e12fff1e 	bx	lr
    a9f0:	0000b97c 	.word	0x0000b97c
    a9f4:	0000b9d4 	.word	0x0000b9d4

0000a9f8 <KeyboardDeallocate>:
    a9f8:	e92d4010 	push	{r4, lr}
    a9fc:	e5903404 	ldr	r3, [r0, #1028]	; 0x404
    aa00:	e1a04000 	mov	r4, r0
    aa04:	e5d32010 	ldrb	r2, [r3, #16]
    aa08:	e5d30011 	ldrb	r0, [r3, #17]
    aa0c:	e5d31012 	ldrb	r1, [r3, #18]
    aa10:	e1822400 	orr	r2, r2, r0, lsl #8
    aa14:	e5d30013 	ldrb	r0, [r3, #19]
    aa18:	e1822801 	orr	r2, r2, r1, lsl #16
    aa1c:	e1920c00 	orrs	r0, r2, r0, lsl #24
    aa20:	0a000007 	beq	aa44 <KeyboardDeallocate+0x4c>
    aa24:	eb000504 	bl	be3c <MemoryDeallocate>
    aa28:	e5943404 	ldr	r3, [r4, #1028]	; 0x404
    aa2c:	e3a02000 	mov	r2, #0
    aa30:	e5c32010 	strb	r2, [r3, #16]
    aa34:	e5c32011 	strb	r2, [r3, #17]
    aa38:	e5c32012 	strb	r2, [r3, #18]
    aa3c:	e5c32013 	strb	r2, [r3, #19]
    aa40:	e5943404 	ldr	r3, [r4, #1028]	; 0x404
    aa44:	e3a02000 	mov	r2, #0
    aa48:	e5c32018 	strb	r2, [r3, #24]
    aa4c:	e5c32019 	strb	r2, [r3, #25]
    aa50:	e5c3201a 	strb	r2, [r3, #26]
    aa54:	e5c3201b 	strb	r2, [r3, #27]
    aa58:	e5c32014 	strb	r2, [r3, #20]
    aa5c:	e5c32015 	strb	r2, [r3, #21]
    aa60:	e5c32016 	strb	r2, [r3, #22]
    aa64:	e5c32017 	strb	r2, [r3, #23]
    aa68:	e8bd4010 	pop	{r4, lr}
    aa6c:	e12fff1e 	bx	lr

0000aa70 <KeyboardIndex>:
    aa70:	e2501000 	subs	r1, r0, #0
    aa74:	1a000001 	bne	aa80 <KeyboardIndex+0x10>
    aa78:	e3e00000 	mvn	r0, #0
    aa7c:	e12fff1e 	bx	lr
    aa80:	e59f303c 	ldr	r3, [pc, #60]	; aac4 <KeyboardIndex+0x54>
    aa84:	e593c010 	ldr	ip, [r3, #16]
    aa88:	e35c0000 	cmp	ip, #0
    aa8c:	0afffff9 	beq	aa78 <KeyboardIndex+0x8>
    aa90:	e5932000 	ldr	r2, [r3]
    aa94:	e1510002 	cmp	r1, r2
    aa98:	e3a00000 	mov	r0, #0
    aa9c:	1a000003 	bne	aab0 <KeyboardIndex+0x40>
    aaa0:	ea000006 	b	aac0 <KeyboardIndex+0x50>
    aaa4:	e5b32004 	ldr	r2, [r3, #4]!
    aaa8:	e1510002 	cmp	r1, r2
    aaac:	012fff1e 	bxeq	lr
    aab0:	e2800001 	add	r0, r0, #1
    aab4:	e150000c 	cmp	r0, ip
    aab8:	1afffff9 	bne	aaa4 <KeyboardIndex+0x34>
    aabc:	eaffffed 	b	aa78 <KeyboardIndex+0x8>
    aac0:	e12fff1e 	bx	lr
    aac4:	0000b97c 	.word	0x0000b97c

0000aac8 <KeyboardGetAddress>:
    aac8:	e59f203c 	ldr	r2, [pc, #60]	; ab0c <KeyboardGetAddress+0x44>
    aacc:	e5923010 	ldr	r3, [r2, #16]
    aad0:	e1530000 	cmp	r3, r0
    aad4:	3a000009 	bcc	ab00 <KeyboardGetAddress+0x38>
    aad8:	e2423004 	sub	r3, r2, #4
    aadc:	e282100c 	add	r1, r2, #12
    aae0:	e5b32004 	ldr	r2, [r3, #4]!
    aae4:	e3520000 	cmp	r2, #0
    aae8:	0a000002 	beq	aaf8 <KeyboardGetAddress+0x30>
    aaec:	e3500000 	cmp	r0, #0
    aaf0:	e2400001 	sub	r0, r0, #1
    aaf4:	0a000002 	beq	ab04 <KeyboardGetAddress+0x3c>
    aaf8:	e1530001 	cmp	r3, r1
    aafc:	1afffff7 	bne	aae0 <KeyboardGetAddress+0x18>
    ab00:	e3a02000 	mov	r2, #0
    ab04:	e1a00002 	mov	r0, r2
    ab08:	e12fff1e 	bx	lr
    ab0c:	0000b97c 	.word	0x0000b97c

0000ab10 <KeyboardScan>:
    ab10:	e92d45f8 	push	{r3, r4, r5, r6, r7, r8, sl, lr}
    ab14:	e59f66a8 	ldr	r6, [pc, #1704]	; b1c4 <KeyboardScan+0x6b4>
    ab18:	e5963010 	ldr	r3, [r6, #16]
    ab1c:	e3530004 	cmp	r3, #4
    ab20:	e1a07000 	mov	r7, r0
    ab24:	0a000055 	beq	ac80 <KeyboardScan+0x170>
    ab28:	e5905404 	ldr	r5, [r0, #1028]	; 0x404
    ab2c:	e5d53000 	ldrb	r3, [r5]
    ab30:	e5d52001 	ldrb	r2, [r5, #1]
    ab34:	e5d51002 	ldrb	r1, [r5, #2]
    ab38:	e1832402 	orr	r2, r3, r2, lsl #8
    ab3c:	e5d53003 	ldrb	r3, [r5, #3]
    ab40:	e1822801 	orr	r2, r2, r1, lsl #16
    ab44:	e1822c03 	orr	r2, r2, r3, lsl #24
    ab48:	e59f3678 	ldr	r3, [pc, #1656]	; b1c8 <KeyboardScan+0x6b8>
    ab4c:	e1520003 	cmp	r2, r3
    ab50:	1a00004a 	bne	ac80 <KeyboardScan+0x170>
    ab54:	e5d5300c 	ldrb	r3, [r5, #12]
    ab58:	e5d5400d 	ldrb	r4, [r5, #13]
    ab5c:	e5d5200e 	ldrb	r2, [r5, #14]
    ab60:	e1834404 	orr	r4, r3, r4, lsl #8
    ab64:	e5d5300f 	ldrb	r3, [r5, #15]
    ab68:	e1844802 	orr	r4, r4, r2, lsl #16
    ab6c:	e1844c03 	orr	r4, r4, r3, lsl #24
    ab70:	e5942000 	ldr	r2, [r4]
    ab74:	e59f3650 	ldr	r3, [pc, #1616]	; b1cc <KeyboardScan+0x6bc>
    ab78:	e1520003 	cmp	r2, r3
    ab7c:	1a00003f 	bne	ac80 <KeyboardScan+0x170>
    ab80:	e5d43004 	ldrb	r3, [r4, #4]
    ab84:	e3530000 	cmp	r3, #0
    ab88:	0a00003c 	beq	ac80 <KeyboardScan+0x170>
    ab8c:	e59f263c 	ldr	r2, [pc, #1596]	; b1d0 <KeyboardScan+0x6c0>
    ab90:	e59f363c 	ldr	r3, [pc, #1596]	; b1d4 <KeyboardScan+0x6c4>
    ab94:	e1a0a422 	lsr	sl, r2, #8
    ab98:	e1a0c423 	lsr	ip, r3, #8
    ab9c:	e1a00823 	lsr	r0, r3, #16
    aba0:	e1a01c23 	lsr	r1, r3, #24
    aba4:	e1a08822 	lsr	r8, r2, #16
    aba8:	e1a0ec22 	lsr	lr, r2, #24
    abac:	e5c52014 	strb	r2, [r5, #20]
    abb0:	e5c53018 	strb	r3, [r5, #24]
    abb4:	e5c5c019 	strb	ip, [r5, #25]
    abb8:	e5c5001a 	strb	r0, [r5, #26]
    abbc:	e5c5101b 	strb	r1, [r5, #27]
    abc0:	e5c5a015 	strb	sl, [r5, #21]
    abc4:	e5c58016 	strb	r8, [r5, #22]
    abc8:	e5c5e017 	strb	lr, [r5, #23]
    abcc:	e3a0006a 	mov	r0, #106	; 0x6a
    abd0:	eb000385 	bl	b9ec <MemoryAllocate>
    abd4:	e1a03000 	mov	r3, r0
    abd8:	e1a0c420 	lsr	ip, r0, #8
    abdc:	e1a01c23 	lsr	r1, r3, #24
    abe0:	e1a00820 	lsr	r0, r0, #16
    abe4:	e3530000 	cmp	r3, #0
    abe8:	e3a02000 	mov	r2, #0
    abec:	e5c53010 	strb	r3, [r5, #16]
    abf0:	e5c5c011 	strb	ip, [r5, #17]
    abf4:	e5c50012 	strb	r0, [r5, #18]
    abf8:	e5c51013 	strb	r1, [r5, #19]
    abfc:	0a00016e 	beq	b1bc <KeyboardScan+0x6ac>
    ac00:	e3a00030 	mov	r0, #48	; 0x30
    ac04:	e5c30000 	strb	r0, [r3]
    ac08:	e3a00044 	mov	r0, #68	; 0x44
    ac0c:	e5c30001 	strb	r0, [r3, #1]
    ac10:	e3a00042 	mov	r0, #66	; 0x42
    ac14:	e5c30002 	strb	r0, [r3, #2]
    ac18:	e3a0004b 	mov	r0, #75	; 0x4b
    ac1c:	e3e01000 	mvn	r1, #0
    ac20:	e5c30003 	strb	r0, [r3, #3]
    ac24:	e3a0006a 	mov	r0, #106	; 0x6a
    ac28:	e5c30004 	strb	r0, [r3, #4]
    ac2c:	e5c32005 	strb	r2, [r3, #5]
    ac30:	e5c32006 	strb	r2, [r3, #6]
    ac34:	e5c32007 	strb	r2, [r3, #7]
    ac38:	e5c31008 	strb	r1, [r3, #8]
    ac3c:	e5c31009 	strb	r1, [r3, #9]
    ac40:	e5c3100a 	strb	r1, [r3, #10]
    ac44:	e5c3100b 	strb	r1, [r3, #11]
    ac48:	e246c004 	sub	ip, r6, #4
    ac4c:	e5bc1004 	ldr	r1, [ip, #4]!
    ac50:	e3510000 	cmp	r1, #0
    ac54:	0a00000b 	beq	ac88 <KeyboardScan+0x178>
    ac58:	e2822001 	add	r2, r2, #1
    ac5c:	e3520004 	cmp	r2, #4
    ac60:	1afffff9 	bne	ac4c <KeyboardScan+0x13c>
    ac64:	e1a00007 	mov	r0, r7
    ac68:	ebffff62 	bl	a9f8 <KeyboardDeallocate>
    ac6c:	e3a000ff 	mov	r0, #255	; 0xff
    ac70:	e1a00c00 	lsl	r0, r0, #24
    ac74:	e1a00c40 	asr	r0, r0, #24
    ac78:	e8bd45f8 	pop	{r3, r4, r5, r6, r7, r8, sl, lr}
    ac7c:	e12fff1e 	bx	lr
    ac80:	e3a000fb 	mov	r0, #251	; 0xfb
    ac84:	eafffff9 	b	ac70 <KeyboardScan+0x160>
    ac88:	e1a05422 	lsr	r5, r2, #8
    ac8c:	e1a0c822 	lsr	ip, r2, #16
    ac90:	e1a00c22 	lsr	r0, r2, #24
    ac94:	e5c3c00a 	strb	ip, [r3, #10]
    ac98:	e5c32008 	strb	r2, [r3, #8]
    ac9c:	e5c35009 	strb	r5, [r3, #9]
    aca0:	e5c3000b 	strb	r0, [r3, #11]
    aca4:	e5975000 	ldr	r5, [r7]
    aca8:	e5960010 	ldr	r0, [r6, #16]
    acac:	e7865102 	str	r5, [r6, r2, lsl #2]
    acb0:	e59f5520 	ldr	r5, [pc, #1312]	; b1d8 <KeyboardScan+0x6c8>
    acb4:	e2800001 	add	r0, r0, #1
    acb8:	e7857102 	str	r7, [r5, r2, lsl #2]
    acbc:	e5860010 	str	r0, [r6, #16]
    acc0:	e5c3101c 	strb	r1, [r3, #28]
    acc4:	e5c31010 	strb	r1, [r3, #16]
    acc8:	e5c31011 	strb	r1, [r3, #17]
    accc:	e5c31012 	strb	r1, [r3, #18]
    acd0:	e5c31013 	strb	r1, [r3, #19]
    acd4:	e5c31014 	strb	r1, [r3, #20]
    acd8:	e5c31015 	strb	r1, [r3, #21]
    acdc:	e5c31016 	strb	r1, [r3, #22]
    ace0:	e5c31017 	strb	r1, [r3, #23]
    ace4:	e5c31018 	strb	r1, [r3, #24]
    ace8:	e5c31019 	strb	r1, [r3, #25]
    acec:	e5c3101a 	strb	r1, [r3, #26]
    acf0:	e5c3101b 	strb	r1, [r3, #27]
    acf4:	e5c3101d 	strb	r1, [r3, #29]
    acf8:	e1a0c001 	mov	ip, r1
    acfc:	e1a00001 	mov	r0, r1
    ad00:	e28c100e 	add	r1, ip, #14
    ad04:	e28cc001 	add	ip, ip, #1
    ad08:	e0831101 	add	r1, r3, r1, lsl #2
    ad0c:	e35c0009 	cmp	ip, #9
    ad10:	e3a02000 	mov	r2, #0
    ad14:	e5c10006 	strb	r0, [r1, #6]
    ad18:	e5c10007 	strb	r0, [r1, #7]
    ad1c:	e5c10008 	strb	r0, [r1, #8]
    ad20:	e5c10009 	strb	r0, [r1, #9]
    ad24:	1afffff5 	bne	ad00 <KeyboardScan+0x1f0>
    ad28:	e5c3201e 	strb	r2, [r3, #30]
    ad2c:	e5c3201f 	strb	r2, [r3, #31]
    ad30:	e5c32020 	strb	r2, [r3, #32]
    ad34:	e5c32021 	strb	r2, [r3, #33]	; 0x21
    ad38:	e5c32022 	strb	r2, [r3, #34]	; 0x22
    ad3c:	e5c32023 	strb	r2, [r3, #35]	; 0x23
    ad40:	e5c32024 	strb	r2, [r3, #36]	; 0x24
    ad44:	e5c32025 	strb	r2, [r3, #37]	; 0x25
    ad48:	e5c32026 	strb	r2, [r3, #38]	; 0x26
    ad4c:	e5c32027 	strb	r2, [r3, #39]	; 0x27
    ad50:	e5c32028 	strb	r2, [r3, #40]	; 0x28
    ad54:	e5c32029 	strb	r2, [r3, #41]	; 0x29
    ad58:	e5c3202a 	strb	r2, [r3, #42]	; 0x2a
    ad5c:	e5c3202b 	strb	r2, [r3, #43]	; 0x2b
    ad60:	e5c3202c 	strb	r2, [r3, #44]	; 0x2c
    ad64:	e5c3202d 	strb	r2, [r3, #45]	; 0x2d
    ad68:	e5c3202e 	strb	r2, [r3, #46]	; 0x2e
    ad6c:	e5c3202f 	strb	r2, [r3, #47]	; 0x2f
    ad70:	e5c32030 	strb	r2, [r3, #48]	; 0x30
    ad74:	e5c32031 	strb	r2, [r3, #49]	; 0x31
    ad78:	e5c32032 	strb	r2, [r3, #50]	; 0x32
    ad7c:	e5c32033 	strb	r2, [r3, #51]	; 0x33
    ad80:	e5c32034 	strb	r2, [r3, #52]	; 0x34
    ad84:	e5c32035 	strb	r2, [r3, #53]	; 0x35
    ad88:	e5c32036 	strb	r2, [r3, #54]	; 0x36
    ad8c:	e5c32037 	strb	r2, [r3, #55]	; 0x37
    ad90:	e5c32038 	strb	r2, [r3, #56]	; 0x38
    ad94:	e5c32039 	strb	r2, [r3, #57]	; 0x39
    ad98:	e5c3203a 	strb	r2, [r3, #58]	; 0x3a
    ad9c:	e5c3203b 	strb	r2, [r3, #59]	; 0x3b
    ada0:	e5c3203c 	strb	r2, [r3, #60]	; 0x3c
    ada4:	e5c3203d 	strb	r2, [r3, #61]	; 0x3d
    ada8:	e5c32062 	strb	r2, [r3, #98]	; 0x62
    adac:	e5c32063 	strb	r2, [r3, #99]	; 0x63
    adb0:	e5c32064 	strb	r2, [r3, #100]	; 0x64
    adb4:	e5c32065 	strb	r2, [r3, #101]	; 0x65
    adb8:	e5c32066 	strb	r2, [r3, #102]	; 0x66
    adbc:	e5c32067 	strb	r2, [r3, #103]	; 0x67
    adc0:	e5c32068 	strb	r2, [r3, #104]	; 0x68
    adc4:	e5c32069 	strb	r2, [r3, #105]	; 0x69
    adc8:	e5d45004 	ldrb	r5, [r4, #4]
    adcc:	e1550002 	cmp	r5, r2
    add0:	11a00004 	movne	r0, r4
    add4:	1a000006 	bne	adf4 <KeyboardScan+0x2e4>
    add8:	ea00003e 	b	aed8 <KeyboardScan+0x3c8>
    addc:	e35c0002 	cmp	ip, #2
    ade0:	0a00003e 	beq	aee0 <KeyboardScan+0x3d0>
    ade4:	e2822001 	add	r2, r2, #1
    ade8:	e1550002 	cmp	r5, r2
    adec:	e2800004 	add	r0, r0, #4
    adf0:	9a000038 	bls	aed8 <KeyboardScan+0x3c8>
    adf4:	e5901008 	ldr	r1, [r0, #8]
    adf8:	e5d1c003 	ldrb	ip, [r1, #3]
    adfc:	e35c0001 	cmp	ip, #1
    ae00:	1afffff5 	bne	addc <KeyboardScan+0x2cc>
    ae04:	e5d36067 	ldrb	r6, [r3, #103]	; 0x67
    ae08:	e5d3c066 	ldrb	ip, [r3, #102]	; 0x66
    ae0c:	e5d37068 	ldrb	r7, [r3, #104]	; 0x68
    ae10:	e18cc406 	orr	ip, ip, r6, lsl #8
    ae14:	e5d36069 	ldrb	r6, [r3, #105]	; 0x69
    ae18:	e18cc807 	orr	ip, ip, r7, lsl #16
    ae1c:	e19ccc06 	orrs	ip, ip, r6, lsl #24
    ae20:	1affffef 	bne	ade4 <KeyboardScan+0x2d4>
    ae24:	e1a05c21 	lsr	r5, r1, #24
    ae28:	e1a07421 	lsr	r7, r1, #8
    ae2c:	e1a06821 	lsr	r6, r1, #16
    ae30:	e5c31066 	strb	r1, [r3, #102]	; 0x66
    ae34:	e5c37067 	strb	r7, [r3, #103]	; 0x67
    ae38:	e5c36068 	strb	r6, [r3, #104]	; 0x68
    ae3c:	e5c35069 	strb	r5, [r3, #105]	; 0x69
    ae40:	e5d15001 	ldrb	r5, [r1, #1]
    ae44:	e3550000 	cmp	r5, #0
    ae48:	1a000003 	bne	ae5c <KeyboardScan+0x34c>
    ae4c:	ea00001c 	b	aec4 <KeyboardScan+0x3b4>
    ae50:	e28cc001 	add	ip, ip, #1
    ae54:	e155000c 	cmp	r5, ip
    ae58:	9a000019 	bls	aec4 <KeyboardScan+0x3b4>
    ae5c:	e08c610c 	add	r6, ip, ip, lsl #2
    ae60:	e08c6086 	add	r6, ip, r6, lsl #1
    ae64:	e1a06106 	lsl	r6, r6, #2
    ae68:	e0817006 	add	r7, r1, r6
    ae6c:	e1d7a1b6 	ldrh	sl, [r7, #22]
    ae70:	e35a0007 	cmp	sl, #7
    ae74:	e2878010 	add	r8, r7, #16
    ae78:	1afffff4 	bne	ae50 <KeyboardScan+0x340>
    ae7c:	e5d75010 	ldrb	r5, [r7, #16]
    ae80:	e3150002 	tst	r5, #2
    ae84:	0a0000c1 	beq	b190 <KeyboardScan+0x680>
    ae88:	e1d751b4 	ldrh	r5, [r7, #20]
    ae8c:	e287600c 	add	r6, r7, #12
    ae90:	e24550d2 	sub	r5, r5, #210	; 0xd2
    ae94:	e0835105 	add	r5, r3, r5, lsl #2
    ae98:	e1a0a426 	lsr	sl, r6, #8
    ae9c:	e1a08826 	lsr	r8, r6, #16
    aea0:	e1a07c26 	lsr	r7, r6, #24
    aea4:	e5c56006 	strb	r6, [r5, #6]
    aea8:	e5c5a007 	strb	sl, [r5, #7]
    aeac:	e5c58008 	strb	r8, [r5, #8]
    aeb0:	e5c57009 	strb	r7, [r5, #9]
    aeb4:	e5d15001 	ldrb	r5, [r1, #1]
    aeb8:	e28cc001 	add	ip, ip, #1
    aebc:	e155000c 	cmp	r5, ip
    aec0:	8affffe5 	bhi	ae5c <KeyboardScan+0x34c>
    aec4:	e5d45004 	ldrb	r5, [r4, #4]
    aec8:	e2822001 	add	r2, r2, #1
    aecc:	e1550002 	cmp	r5, r2
    aed0:	e2800004 	add	r0, r0, #4
    aed4:	8affffc6 	bhi	adf4 <KeyboardScan+0x2e4>
    aed8:	e3a00000 	mov	r0, #0
    aedc:	eaffff63 	b	ac70 <KeyboardScan+0x160>
    aee0:	e5d36063 	ldrb	r6, [r3, #99]	; 0x63
    aee4:	e5d3c062 	ldrb	ip, [r3, #98]	; 0x62
    aee8:	e5d37064 	ldrb	r7, [r3, #100]	; 0x64
    aeec:	e18cc406 	orr	ip, ip, r6, lsl #8
    aef0:	e5d36065 	ldrb	r6, [r3, #101]	; 0x65
    aef4:	e18cc807 	orr	ip, ip, r7, lsl #16
    aef8:	e19ccc06 	orrs	ip, ip, r6, lsl #24
    aefc:	1affffb8 	bne	ade4 <KeyboardScan+0x2d4>
    af00:	e1a05c21 	lsr	r5, r1, #24
    af04:	e1a07421 	lsr	r7, r1, #8
    af08:	e1a06821 	lsr	r6, r1, #16
    af0c:	e5c31062 	strb	r1, [r3, #98]	; 0x62
    af10:	e5c37063 	strb	r7, [r3, #99]	; 0x63
    af14:	e5c36064 	strb	r6, [r3, #100]	; 0x64
    af18:	e5c35065 	strb	r5, [r3, #101]	; 0x65
    af1c:	e5d15001 	ldrb	r5, [r1, #1]
    af20:	e3550000 	cmp	r5, #0
    af24:	1a000003 	bne	af38 <KeyboardScan+0x428>
    af28:	eaffffe5 	b	aec4 <KeyboardScan+0x3b4>
    af2c:	e28cc001 	add	ip, ip, #1
    af30:	e155000c 	cmp	r5, ip
    af34:	9affffe2 	bls	aec4 <KeyboardScan+0x3b4>
    af38:	e1a0710c 	lsl	r7, ip, #2
    af3c:	e087600c 	add	r6, r7, ip
    af40:	e08c6086 	add	r6, ip, r6, lsl #1
    af44:	e0816106 	add	r6, r1, r6, lsl #2
    af48:	e1d681b6 	ldrh	r8, [r6, #22]
    af4c:	e3580008 	cmp	r8, #8
    af50:	e2866010 	add	r6, r6, #16
    af54:	1afffff4 	bne	af2c <KeyboardScan+0x41c>
    af58:	e1d660b4 	ldrh	r6, [r6, #4]
    af5c:	e2466001 	sub	r6, r6, #1
    af60:	e3560008 	cmp	r6, #8
    af64:	979ff106 	ldrls	pc, [pc, r6, lsl #2]
    af68:	eaffffef 	b	af2c <KeyboardScan+0x41c>
    af6c:	0000b150 	.word	0x0000b150
    af70:	0000b110 	.word	0x0000b110
    af74:	0000b0d0 	.word	0x0000b0d0
    af78:	0000b090 	.word	0x0000b090
    af7c:	0000b050 	.word	0x0000b050
    af80:	0000b010 	.word	0x0000b010
    af84:	0000afd0 	.word	0x0000afd0
    af88:	0000af2c 	.word	0x0000af2c
    af8c:	0000af90 	.word	0x0000af90
    af90:	e087500c 	add	r5, r7, ip
    af94:	e08c5085 	add	r5, ip, r5, lsl #1
    af98:	e5d3601d 	ldrb	r6, [r3, #29]
    af9c:	e0815105 	add	r5, r1, r5, lsl #2
    afa0:	e285500c 	add	r5, r5, #12
    afa4:	e1a0a425 	lsr	sl, r5, #8
    afa8:	e1a08825 	lsr	r8, r5, #16
    afac:	e1a07c25 	lsr	r7, r5, #24
    afb0:	e3866040 	orr	r6, r6, #64	; 0x40
    afb4:	e5c3503a 	strb	r5, [r3, #58]	; 0x3a
    afb8:	e5c3a03b 	strb	sl, [r3, #59]	; 0x3b
    afbc:	e5c3803c 	strb	r8, [r3, #60]	; 0x3c
    afc0:	e5c3703d 	strb	r7, [r3, #61]	; 0x3d
    afc4:	e5c3601d 	strb	r6, [r3, #29]
    afc8:	e5d15001 	ldrb	r5, [r1, #1]
    afcc:	eaffffd6 	b	af2c <KeyboardScan+0x41c>
    afd0:	e087500c 	add	r5, r7, ip
    afd4:	e08c5085 	add	r5, ip, r5, lsl #1
    afd8:	e5d3601d 	ldrb	r6, [r3, #29]
    afdc:	e0815105 	add	r5, r1, r5, lsl #2
    afe0:	e285500c 	add	r5, r5, #12
    afe4:	e1a0a425 	lsr	sl, r5, #8
    afe8:	e1a08825 	lsr	r8, r5, #16
    afec:	e1a07c25 	lsr	r7, r5, #24
    aff0:	e3866080 	orr	r6, r6, #128	; 0x80
    aff4:	e5c35036 	strb	r5, [r3, #54]	; 0x36
    aff8:	e5c3a037 	strb	sl, [r3, #55]	; 0x37
    affc:	e5c38038 	strb	r8, [r3, #56]	; 0x38
    b000:	e5c37039 	strb	r7, [r3, #57]	; 0x39
    b004:	e5c3601d 	strb	r6, [r3, #29]
    b008:	e5d15001 	ldrb	r5, [r1, #1]
    b00c:	eaffffc6 	b	af2c <KeyboardScan+0x41c>
    b010:	e087500c 	add	r5, r7, ip
    b014:	e08c5085 	add	r5, ip, r5, lsl #1
    b018:	e5d3601d 	ldrb	r6, [r3, #29]
    b01c:	e0815105 	add	r5, r1, r5, lsl #2
    b020:	e285500c 	add	r5, r5, #12
    b024:	e1a0a425 	lsr	sl, r5, #8
    b028:	e1a08825 	lsr	r8, r5, #16
    b02c:	e1a07c25 	lsr	r7, r5, #24
    b030:	e3866020 	orr	r6, r6, #32
    b034:	e5c35032 	strb	r5, [r3, #50]	; 0x32
    b038:	e5c3a033 	strb	sl, [r3, #51]	; 0x33
    b03c:	e5c38034 	strb	r8, [r3, #52]	; 0x34
    b040:	e5c37035 	strb	r7, [r3, #53]	; 0x35
    b044:	e5c3601d 	strb	r6, [r3, #29]
    b048:	e5d15001 	ldrb	r5, [r1, #1]
    b04c:	eaffffb6 	b	af2c <KeyboardScan+0x41c>
    b050:	e087500c 	add	r5, r7, ip
    b054:	e08c5085 	add	r5, ip, r5, lsl #1
    b058:	e5d3601d 	ldrb	r6, [r3, #29]
    b05c:	e0815105 	add	r5, r1, r5, lsl #2
    b060:	e285500c 	add	r5, r5, #12
    b064:	e1a0a425 	lsr	sl, r5, #8
    b068:	e1a08825 	lsr	r8, r5, #16
    b06c:	e1a07c25 	lsr	r7, r5, #24
    b070:	e3866010 	orr	r6, r6, #16
    b074:	e5c3502e 	strb	r5, [r3, #46]	; 0x2e
    b078:	e5c3a02f 	strb	sl, [r3, #47]	; 0x2f
    b07c:	e5c38030 	strb	r8, [r3, #48]	; 0x30
    b080:	e5c37031 	strb	r7, [r3, #49]	; 0x31
    b084:	e5c3601d 	strb	r6, [r3, #29]
    b088:	e5d15001 	ldrb	r5, [r1, #1]
    b08c:	eaffffa6 	b	af2c <KeyboardScan+0x41c>
    b090:	e087500c 	add	r5, r7, ip
    b094:	e08c5085 	add	r5, ip, r5, lsl #1
    b098:	e5d3601d 	ldrb	r6, [r3, #29]
    b09c:	e0815105 	add	r5, r1, r5, lsl #2
    b0a0:	e285500c 	add	r5, r5, #12
    b0a4:	e1a0a425 	lsr	sl, r5, #8
    b0a8:	e1a08825 	lsr	r8, r5, #16
    b0ac:	e1a07c25 	lsr	r7, r5, #24
    b0b0:	e3866008 	orr	r6, r6, #8
    b0b4:	e5c3502a 	strb	r5, [r3, #42]	; 0x2a
    b0b8:	e5c3a02b 	strb	sl, [r3, #43]	; 0x2b
    b0bc:	e5c3802c 	strb	r8, [r3, #44]	; 0x2c
    b0c0:	e5c3702d 	strb	r7, [r3, #45]	; 0x2d
    b0c4:	e5c3601d 	strb	r6, [r3, #29]
    b0c8:	e5d15001 	ldrb	r5, [r1, #1]
    b0cc:	eaffff96 	b	af2c <KeyboardScan+0x41c>
    b0d0:	e087500c 	add	r5, r7, ip
    b0d4:	e08c5085 	add	r5, ip, r5, lsl #1
    b0d8:	e5d3601d 	ldrb	r6, [r3, #29]
    b0dc:	e0815105 	add	r5, r1, r5, lsl #2
    b0e0:	e285500c 	add	r5, r5, #12
    b0e4:	e1a0a425 	lsr	sl, r5, #8
    b0e8:	e1a08825 	lsr	r8, r5, #16
    b0ec:	e1a07c25 	lsr	r7, r5, #24
    b0f0:	e3866004 	orr	r6, r6, #4
    b0f4:	e5c35026 	strb	r5, [r3, #38]	; 0x26
    b0f8:	e5c3a027 	strb	sl, [r3, #39]	; 0x27
    b0fc:	e5c38028 	strb	r8, [r3, #40]	; 0x28
    b100:	e5c37029 	strb	r7, [r3, #41]	; 0x29
    b104:	e5c3601d 	strb	r6, [r3, #29]
    b108:	e5d15001 	ldrb	r5, [r1, #1]
    b10c:	eaffff86 	b	af2c <KeyboardScan+0x41c>
    b110:	e087500c 	add	r5, r7, ip
    b114:	e08c5085 	add	r5, ip, r5, lsl #1
    b118:	e5d3601d 	ldrb	r6, [r3, #29]
    b11c:	e0815105 	add	r5, r1, r5, lsl #2
    b120:	e285500c 	add	r5, r5, #12
    b124:	e1a0a425 	lsr	sl, r5, #8
    b128:	e1a08825 	lsr	r8, r5, #16
    b12c:	e1a07c25 	lsr	r7, r5, #24
    b130:	e3866002 	orr	r6, r6, #2
    b134:	e5c35022 	strb	r5, [r3, #34]	; 0x22
    b138:	e5c3a023 	strb	sl, [r3, #35]	; 0x23
    b13c:	e5c38024 	strb	r8, [r3, #36]	; 0x24
    b140:	e5c37025 	strb	r7, [r3, #37]	; 0x25
    b144:	e5c3601d 	strb	r6, [r3, #29]
    b148:	e5d15001 	ldrb	r5, [r1, #1]
    b14c:	eaffff76 	b	af2c <KeyboardScan+0x41c>
    b150:	e087500c 	add	r5, r7, ip
    b154:	e08c5085 	add	r5, ip, r5, lsl #1
    b158:	e5d3601d 	ldrb	r6, [r3, #29]
    b15c:	e0815105 	add	r5, r1, r5, lsl #2
    b160:	e285500c 	add	r5, r5, #12
    b164:	e1a0a425 	lsr	sl, r5, #8
    b168:	e1a08825 	lsr	r8, r5, #16
    b16c:	e1a07c25 	lsr	r7, r5, #24
    b170:	e3866001 	orr	r6, r6, #1
    b174:	e5c3501e 	strb	r5, [r3, #30]
    b178:	e5c3a01f 	strb	sl, [r3, #31]
    b17c:	e5c38020 	strb	r8, [r3, #32]
    b180:	e5c37021 	strb	r7, [r3, #33]	; 0x21
    b184:	e5c3601d 	strb	r6, [r3, #29]
    b188:	e5d15001 	ldrb	r5, [r1, #1]
    b18c:	eaffff66 	b	af2c <KeyboardScan+0x41c>
    b190:	e0816006 	add	r6, r1, r6
    b194:	e286600c 	add	r6, r6, #12
    b198:	e1a05c26 	lsr	r5, r6, #24
    b19c:	e1a08426 	lsr	r8, r6, #8
    b1a0:	e1a07826 	lsr	r7, r6, #16
    b1a4:	e5c3605e 	strb	r6, [r3, #94]	; 0x5e
    b1a8:	e5c3805f 	strb	r8, [r3, #95]	; 0x5f
    b1ac:	e5c37060 	strb	r7, [r3, #96]	; 0x60
    b1b0:	e5c35061 	strb	r5, [r3, #97]	; 0x61
    b1b4:	e5d15001 	ldrb	r5, [r1, #1]
    b1b8:	eaffff24 	b	ae50 <KeyboardScan+0x340>
    b1bc:	e3a000f9 	mov	r0, #249	; 0xf9
    b1c0:	eafffeaa 	b	ac70 <KeyboardScan+0x160>
    b1c4:	0000b97c 	.word	0x0000b97c
    b1c8:	48494430 	.word	0x48494430
    b1cc:	00010006 	.word	0x00010006
    b1d0:	0000a97c 	.word	0x0000a97c
    b1d4:	0000a9f8 	.word	0x0000a9f8
    b1d8:	0000b9d4 	.word	0x0000b9d4

0000b1dc <KeyboardCount>:
    b1dc:	e59f3004 	ldr	r3, [pc, #4]	; b1e8 <KeyboardCount+0xc>
    b1e0:	e5930010 	ldr	r0, [r3, #16]
    b1e4:	e12fff1e 	bx	lr
    b1e8:	0000b97c 	.word	0x0000b97c

0000b1ec <KeyboardSetLeds>:
    b1ec:	e92d4010 	push	{r4, lr}
    b1f0:	e1a04001 	mov	r4, r1
    b1f4:	ebfffe1d 	bl	aa70 <KeyboardIndex>
    b1f8:	e3700001 	cmn	r0, #1
    b1fc:	0a00007e 	beq	b3fc <KeyboardSetLeds+0x210>
    b200:	e59f31fc 	ldr	r3, [pc, #508]	; b404 <KeyboardSetLeds+0x218>
    b204:	e7930100 	ldr	r0, [r3, r0, lsl #2]
    b208:	e5902404 	ldr	r2, [r0, #1028]	; 0x404
    b20c:	e5d23010 	ldrb	r3, [r2, #16]
    b210:	e5d2c011 	ldrb	ip, [r2, #17]
    b214:	e5d21012 	ldrb	r1, [r2, #18]
    b218:	e183340c 	orr	r3, r3, ip, lsl #8
    b21c:	e5d22013 	ldrb	r2, [r2, #19]
    b220:	e1833801 	orr	r3, r3, r1, lsl #16
    b224:	e1833c02 	orr	r3, r3, r2, lsl #24
    b228:	e5d3201d 	ldrb	r2, [r3, #29]
    b22c:	e3120001 	tst	r2, #1
    b230:	0a000009 	beq	b25c <KeyboardSetLeds+0x70>
    b234:	e5d3201e 	ldrb	r2, [r3, #30]
    b238:	e5d3e01f 	ldrb	lr, [r3, #31]
    b23c:	e5d3c020 	ldrb	ip, [r3, #32]
    b240:	e5d31021 	ldrb	r1, [r3, #33]	; 0x21
    b244:	e182240e 	orr	r2, r2, lr, lsl #8
    b248:	e182280c 	orr	r2, r2, ip, lsl #16
    b24c:	e1822c01 	orr	r2, r2, r1, lsl #24
    b250:	e2041001 	and	r1, r4, #1
    b254:	e5c21028 	strb	r1, [r2, #40]	; 0x28
    b258:	e5d3201d 	ldrb	r2, [r3, #29]
    b25c:	e3120002 	tst	r2, #2
    b260:	0a00000a 	beq	b290 <KeyboardSetLeds+0xa4>
    b264:	e5d32022 	ldrb	r2, [r3, #34]	; 0x22
    b268:	e5d3e023 	ldrb	lr, [r3, #35]	; 0x23
    b26c:	e5d31024 	ldrb	r1, [r3, #36]	; 0x24
    b270:	e5d3c025 	ldrb	ip, [r3, #37]	; 0x25
    b274:	e182240e 	orr	r2, r2, lr, lsl #8
    b278:	e1822801 	orr	r2, r2, r1, lsl #16
    b27c:	e1a010a4 	lsr	r1, r4, #1
    b280:	e1822c0c 	orr	r2, r2, ip, lsl #24
    b284:	e2011001 	and	r1, r1, #1
    b288:	e5c21028 	strb	r1, [r2, #40]	; 0x28
    b28c:	e5d3201d 	ldrb	r2, [r3, #29]
    b290:	e3120004 	tst	r2, #4
    b294:	0a00000a 	beq	b2c4 <KeyboardSetLeds+0xd8>
    b298:	e5d32026 	ldrb	r2, [r3, #38]	; 0x26
    b29c:	e5d3e027 	ldrb	lr, [r3, #39]	; 0x27
    b2a0:	e5d31028 	ldrb	r1, [r3, #40]	; 0x28
    b2a4:	e5d3c029 	ldrb	ip, [r3, #41]	; 0x29
    b2a8:	e182240e 	orr	r2, r2, lr, lsl #8
    b2ac:	e1822801 	orr	r2, r2, r1, lsl #16
    b2b0:	e1a01124 	lsr	r1, r4, #2
    b2b4:	e1822c0c 	orr	r2, r2, ip, lsl #24
    b2b8:	e2011001 	and	r1, r1, #1
    b2bc:	e5c21028 	strb	r1, [r2, #40]	; 0x28
    b2c0:	e5d3201d 	ldrb	r2, [r3, #29]
    b2c4:	e3120008 	tst	r2, #8
    b2c8:	0a00000a 	beq	b2f8 <KeyboardSetLeds+0x10c>
    b2cc:	e5d3202a 	ldrb	r2, [r3, #42]	; 0x2a
    b2d0:	e5d3e02b 	ldrb	lr, [r3, #43]	; 0x2b
    b2d4:	e5d3102c 	ldrb	r1, [r3, #44]	; 0x2c
    b2d8:	e5d3c02d 	ldrb	ip, [r3, #45]	; 0x2d
    b2dc:	e182240e 	orr	r2, r2, lr, lsl #8
    b2e0:	e1822801 	orr	r2, r2, r1, lsl #16
    b2e4:	e1a011a4 	lsr	r1, r4, #3
    b2e8:	e1822c0c 	orr	r2, r2, ip, lsl #24
    b2ec:	e2011001 	and	r1, r1, #1
    b2f0:	e5c21028 	strb	r1, [r2, #40]	; 0x28
    b2f4:	e5d3201d 	ldrb	r2, [r3, #29]
    b2f8:	e3120010 	tst	r2, #16
    b2fc:	0a00000a 	beq	b32c <KeyboardSetLeds+0x140>
    b300:	e5d3202e 	ldrb	r2, [r3, #46]	; 0x2e
    b304:	e5d3e02f 	ldrb	lr, [r3, #47]	; 0x2f
    b308:	e5d31030 	ldrb	r1, [r3, #48]	; 0x30
    b30c:	e5d3c031 	ldrb	ip, [r3, #49]	; 0x31
    b310:	e182240e 	orr	r2, r2, lr, lsl #8
    b314:	e1822801 	orr	r2, r2, r1, lsl #16
    b318:	e1a01224 	lsr	r1, r4, #4
    b31c:	e1822c0c 	orr	r2, r2, ip, lsl #24
    b320:	e2011001 	and	r1, r1, #1
    b324:	e5c21028 	strb	r1, [r2, #40]	; 0x28
    b328:	e5d3201d 	ldrb	r2, [r3, #29]
    b32c:	e3120020 	tst	r2, #32
    b330:	0a00000a 	beq	b360 <KeyboardSetLeds+0x174>
    b334:	e5d32032 	ldrb	r2, [r3, #50]	; 0x32
    b338:	e5d3e033 	ldrb	lr, [r3, #51]	; 0x33
    b33c:	e5d31034 	ldrb	r1, [r3, #52]	; 0x34
    b340:	e5d3c035 	ldrb	ip, [r3, #53]	; 0x35
    b344:	e182240e 	orr	r2, r2, lr, lsl #8
    b348:	e1822801 	orr	r2, r2, r1, lsl #16
    b34c:	e1a012a4 	lsr	r1, r4, #5
    b350:	e1822c0c 	orr	r2, r2, ip, lsl #24
    b354:	e2011001 	and	r1, r1, #1
    b358:	e5c21028 	strb	r1, [r2, #40]	; 0x28
    b35c:	e5d3201d 	ldrb	r2, [r3, #29]
    b360:	e3120080 	tst	r2, #128	; 0x80
    b364:	0a00000a 	beq	b394 <KeyboardSetLeds+0x1a8>
    b368:	e5d32036 	ldrb	r2, [r3, #54]	; 0x36
    b36c:	e5d3e037 	ldrb	lr, [r3, #55]	; 0x37
    b370:	e5d31038 	ldrb	r1, [r3, #56]	; 0x38
    b374:	e5d3c039 	ldrb	ip, [r3, #57]	; 0x39
    b378:	e182240e 	orr	r2, r2, lr, lsl #8
    b37c:	e1822801 	orr	r2, r2, r1, lsl #16
    b380:	e20410ff 	and	r1, r4, #255	; 0xff
    b384:	e1822c0c 	orr	r2, r2, ip, lsl #24
    b388:	e1a013a1 	lsr	r1, r1, #7
    b38c:	e5c21028 	strb	r1, [r2, #40]	; 0x28
    b390:	e5d3201d 	ldrb	r2, [r3, #29]
    b394:	e3120040 	tst	r2, #64	; 0x40
    b398:	1a00000c 	bne	b3d0 <KeyboardSetLeds+0x1e4>
    b39c:	e5d32062 	ldrb	r2, [r3, #98]	; 0x62
    b3a0:	e5d31063 	ldrb	r1, [r3, #99]	; 0x63
    b3a4:	e5d3c064 	ldrb	ip, [r3, #100]	; 0x64
    b3a8:	e1821401 	orr	r1, r2, r1, lsl #8
    b3ac:	e5d32065 	ldrb	r2, [r3, #101]	; 0x65
    b3b0:	e181380c 	orr	r3, r1, ip, lsl #16
    b3b4:	e1833c02 	orr	r3, r3, r2, lsl #24
    b3b8:	e5d31000 	ldrb	r1, [r3]
    b3bc:	eb001f36 	bl	1309c <HidWriteDevice>
    b3c0:	e1a00c00 	lsl	r0, r0, #24
    b3c4:	e1a00c40 	asr	r0, r0, #24
    b3c8:	e8bd4010 	pop	{r4, lr}
    b3cc:	e12fff1e 	bx	lr
    b3d0:	e5d3203a 	ldrb	r2, [r3, #58]	; 0x3a
    b3d4:	e5d3e03b 	ldrb	lr, [r3, #59]	; 0x3b
    b3d8:	e5d3c03c 	ldrb	ip, [r3, #60]	; 0x3c
    b3dc:	e5d3103d 	ldrb	r1, [r3, #61]	; 0x3d
    b3e0:	e182240e 	orr	r2, r2, lr, lsl #8
    b3e4:	e182280c 	orr	r2, r2, ip, lsl #16
    b3e8:	e1a04324 	lsr	r4, r4, #6
    b3ec:	e1822c01 	orr	r2, r2, r1, lsl #24
    b3f0:	e2044001 	and	r4, r4, #1
    b3f4:	e5c24028 	strb	r4, [r2, #40]	; 0x28
    b3f8:	eaffffe7 	b	b39c <KeyboardSetLeds+0x1b0>
    b3fc:	e3a000f7 	mov	r0, #247	; 0xf7
    b400:	eaffffee 	b	b3c0 <KeyboardSetLeds+0x1d4>
    b404:	0000b9d4 	.word	0x0000b9d4

0000b408 <KeyboardGetLedSupport>:
    b408:	e92d4008 	push	{r3, lr}
    b40c:	ebfffd97 	bl	aa70 <KeyboardIndex>
    b410:	e3700001 	cmn	r0, #1
    b414:	03a00000 	moveq	r0, #0
    b418:	0a00000a 	beq	b448 <KeyboardGetLedSupport+0x40>
    b41c:	e59f302c 	ldr	r3, [pc, #44]	; b450 <KeyboardGetLedSupport+0x48>
    b420:	e7933100 	ldr	r3, [r3, r0, lsl #2]
    b424:	e5933404 	ldr	r3, [r3, #1028]	; 0x404
    b428:	e5d32010 	ldrb	r2, [r3, #16]
    b42c:	e5d31011 	ldrb	r1, [r3, #17]
    b430:	e5d30012 	ldrb	r0, [r3, #18]
    b434:	e1821401 	orr	r1, r2, r1, lsl #8
    b438:	e5d32013 	ldrb	r2, [r3, #19]
    b43c:	e1813800 	orr	r3, r1, r0, lsl #16
    b440:	e1833c02 	orr	r3, r3, r2, lsl #24
    b444:	e5d3001d 	ldrb	r0, [r3, #29]
    b448:	e8bd4008 	pop	{r3, lr}
    b44c:	e12fff1e 	bx	lr
    b450:	0000b9d4 	.word	0x0000b9d4

0000b454 <KeyboardPoll>:
    b454:	e92d4070 	push	{r4, r5, r6, lr}
    b458:	ebfffd84 	bl	aa70 <KeyboardIndex>
    b45c:	e3700001 	cmn	r0, #1
    b460:	0a0000c9 	beq	b78c <KeyboardPoll+0x338>
    b464:	e59f3328 	ldr	r3, [pc, #808]	; b794 <KeyboardPoll+0x340>
    b468:	e7930100 	ldr	r0, [r3, r0, lsl #2]
    b46c:	e5903404 	ldr	r3, [r0, #1028]	; 0x404
    b470:	e5d31010 	ldrb	r1, [r3, #16]
    b474:	e5d34011 	ldrb	r4, [r3, #17]
    b478:	e5d32012 	ldrb	r2, [r3, #18]
    b47c:	e1814404 	orr	r4, r1, r4, lsl #8
    b480:	e5d33013 	ldrb	r3, [r3, #19]
    b484:	e1844802 	orr	r4, r4, r2, lsl #16
    b488:	e1844c03 	orr	r4, r4, r3, lsl #24
    b48c:	e5d42067 	ldrb	r2, [r4, #103]	; 0x67
    b490:	e5d43066 	ldrb	r3, [r4, #102]	; 0x66
    b494:	e5d41068 	ldrb	r1, [r4, #104]	; 0x68
    b498:	e1833402 	orr	r3, r3, r2, lsl #8
    b49c:	e5d42069 	ldrb	r2, [r4, #105]	; 0x69
    b4a0:	e1833801 	orr	r3, r3, r1, lsl #16
    b4a4:	e1833c02 	orr	r3, r3, r2, lsl #24
    b4a8:	e5d31000 	ldrb	r1, [r3]
    b4ac:	eb001e7b 	bl	12ea0 <HidReadDevice>
    b4b0:	e2506000 	subs	r6, r0, #0
    b4b4:	1a0000b0 	bne	b77c <KeyboardPoll+0x328>
    b4b8:	e5d4203f 	ldrb	r2, [r4, #63]	; 0x3f
    b4bc:	e5d4303e 	ldrb	r3, [r4, #62]	; 0x3e
    b4c0:	e5d41040 	ldrb	r1, [r4, #64]	; 0x40
    b4c4:	e1833402 	orr	r3, r3, r2, lsl #8
    b4c8:	e5d42041 	ldrb	r2, [r4, #65]	; 0x41
    b4cc:	e1833801 	orr	r3, r3, r1, lsl #16
    b4d0:	e1933c02 	orrs	r3, r3, r2, lsl #24
    b4d4:	0a000005 	beq	b4f0 <KeyboardPoll+0x9c>
    b4d8:	e5d4201c 	ldrb	r2, [r4, #28]
    b4dc:	e5d33028 	ldrb	r3, [r3, #40]	; 0x28
    b4e0:	e3c22001 	bic	r2, r2, #1
    b4e4:	e2033001 	and	r3, r3, #1
    b4e8:	e1833002 	orr	r3, r3, r2
    b4ec:	e5c4301c 	strb	r3, [r4, #28]
    b4f0:	e5d42043 	ldrb	r2, [r4, #67]	; 0x43
    b4f4:	e5d43042 	ldrb	r3, [r4, #66]	; 0x42
    b4f8:	e5d41044 	ldrb	r1, [r4, #68]	; 0x44
    b4fc:	e1833402 	orr	r3, r3, r2, lsl #8
    b500:	e5d42045 	ldrb	r2, [r4, #69]	; 0x45
    b504:	e1833801 	orr	r3, r3, r1, lsl #16
    b508:	e1933c02 	orrs	r3, r3, r2, lsl #24
    b50c:	0a000005 	beq	b528 <KeyboardPoll+0xd4>
    b510:	e5d4201c 	ldrb	r2, [r4, #28]
    b514:	e5d33028 	ldrb	r3, [r3, #40]	; 0x28
    b518:	e3c22002 	bic	r2, r2, #2
    b51c:	e2033001 	and	r3, r3, #1
    b520:	e1823083 	orr	r3, r2, r3, lsl #1
    b524:	e5c4301c 	strb	r3, [r4, #28]
    b528:	e5d42047 	ldrb	r2, [r4, #71]	; 0x47
    b52c:	e5d43046 	ldrb	r3, [r4, #70]	; 0x46
    b530:	e5d41048 	ldrb	r1, [r4, #72]	; 0x48
    b534:	e1833402 	orr	r3, r3, r2, lsl #8
    b538:	e5d42049 	ldrb	r2, [r4, #73]	; 0x49
    b53c:	e1833801 	orr	r3, r3, r1, lsl #16
    b540:	e1933c02 	orrs	r3, r3, r2, lsl #24
    b544:	0a000005 	beq	b560 <KeyboardPoll+0x10c>
    b548:	e5d4201c 	ldrb	r2, [r4, #28]
    b54c:	e5d33028 	ldrb	r3, [r3, #40]	; 0x28
    b550:	e3c22004 	bic	r2, r2, #4
    b554:	e2033001 	and	r3, r3, #1
    b558:	e1823103 	orr	r3, r2, r3, lsl #2
    b55c:	e5c4301c 	strb	r3, [r4, #28]
    b560:	e5d4204b 	ldrb	r2, [r4, #75]	; 0x4b
    b564:	e5d4304a 	ldrb	r3, [r4, #74]	; 0x4a
    b568:	e5d4104c 	ldrb	r1, [r4, #76]	; 0x4c
    b56c:	e1833402 	orr	r3, r3, r2, lsl #8
    b570:	e5d4204d 	ldrb	r2, [r4, #77]	; 0x4d
    b574:	e1833801 	orr	r3, r3, r1, lsl #16
    b578:	e1933c02 	orrs	r3, r3, r2, lsl #24
    b57c:	0a000005 	beq	b598 <KeyboardPoll+0x144>
    b580:	e5d4201c 	ldrb	r2, [r4, #28]
    b584:	e5d33028 	ldrb	r3, [r3, #40]	; 0x28
    b588:	e3c22008 	bic	r2, r2, #8
    b58c:	e2033001 	and	r3, r3, #1
    b590:	e1823183 	orr	r3, r2, r3, lsl #3
    b594:	e5c4301c 	strb	r3, [r4, #28]
    b598:	e5d4204f 	ldrb	r2, [r4, #79]	; 0x4f
    b59c:	e5d4304e 	ldrb	r3, [r4, #78]	; 0x4e
    b5a0:	e5d41050 	ldrb	r1, [r4, #80]	; 0x50
    b5a4:	e1833402 	orr	r3, r3, r2, lsl #8
    b5a8:	e5d42051 	ldrb	r2, [r4, #81]	; 0x51
    b5ac:	e1833801 	orr	r3, r3, r1, lsl #16
    b5b0:	e1933c02 	orrs	r3, r3, r2, lsl #24
    b5b4:	0a000005 	beq	b5d0 <KeyboardPoll+0x17c>
    b5b8:	e5d4201c 	ldrb	r2, [r4, #28]
    b5bc:	e5d33028 	ldrb	r3, [r3, #40]	; 0x28
    b5c0:	e3c22010 	bic	r2, r2, #16
    b5c4:	e2033001 	and	r3, r3, #1
    b5c8:	e1823203 	orr	r3, r2, r3, lsl #4
    b5cc:	e5c4301c 	strb	r3, [r4, #28]
    b5d0:	e5d42053 	ldrb	r2, [r4, #83]	; 0x53
    b5d4:	e5d43052 	ldrb	r3, [r4, #82]	; 0x52
    b5d8:	e5d41054 	ldrb	r1, [r4, #84]	; 0x54
    b5dc:	e1833402 	orr	r3, r3, r2, lsl #8
    b5e0:	e5d42055 	ldrb	r2, [r4, #85]	; 0x55
    b5e4:	e1833801 	orr	r3, r3, r1, lsl #16
    b5e8:	e1933c02 	orrs	r3, r3, r2, lsl #24
    b5ec:	0a000005 	beq	b608 <KeyboardPoll+0x1b4>
    b5f0:	e5d4201c 	ldrb	r2, [r4, #28]
    b5f4:	e5d33028 	ldrb	r3, [r3, #40]	; 0x28
    b5f8:	e3c22020 	bic	r2, r2, #32
    b5fc:	e2033001 	and	r3, r3, #1
    b600:	e1823283 	orr	r3, r2, r3, lsl #5
    b604:	e5c4301c 	strb	r3, [r4, #28]
    b608:	e5d42057 	ldrb	r2, [r4, #87]	; 0x57
    b60c:	e5d43056 	ldrb	r3, [r4, #86]	; 0x56
    b610:	e5d41058 	ldrb	r1, [r4, #88]	; 0x58
    b614:	e1833402 	orr	r3, r3, r2, lsl #8
    b618:	e5d42059 	ldrb	r2, [r4, #89]	; 0x59
    b61c:	e1833801 	orr	r3, r3, r1, lsl #16
    b620:	e1933c02 	orrs	r3, r3, r2, lsl #24
    b624:	0a000005 	beq	b640 <KeyboardPoll+0x1ec>
    b628:	e5d4201c 	ldrb	r2, [r4, #28]
    b62c:	e5d33028 	ldrb	r3, [r3, #40]	; 0x28
    b630:	e3c22040 	bic	r2, r2, #64	; 0x40
    b634:	e2033001 	and	r3, r3, #1
    b638:	e1823303 	orr	r3, r2, r3, lsl #6
    b63c:	e5c4301c 	strb	r3, [r4, #28]
    b640:	e5d4205b 	ldrb	r2, [r4, #91]	; 0x5b
    b644:	e5d4305a 	ldrb	r3, [r4, #90]	; 0x5a
    b648:	e5d4105c 	ldrb	r1, [r4, #92]	; 0x5c
    b64c:	e1833402 	orr	r3, r3, r2, lsl #8
    b650:	e5d4205d 	ldrb	r2, [r4, #93]	; 0x5d
    b654:	e1833801 	orr	r3, r3, r1, lsl #16
    b658:	e1933c02 	orrs	r3, r3, r2, lsl #24
    b65c:	0a000005 	beq	b678 <KeyboardPoll+0x224>
    b660:	e5d4201c 	ldrb	r2, [r4, #28]
    b664:	e5d33028 	ldrb	r3, [r3, #40]	; 0x28
    b668:	e3c22080 	bic	r2, r2, #128	; 0x80
    b66c:	e2033001 	and	r3, r3, #1
    b670:	e1823383 	orr	r3, r2, r3, lsl #7
    b674:	e5c4301c 	strb	r3, [r4, #28]
    b678:	e5d4305e 	ldrb	r3, [r4, #94]	; 0x5e
    b67c:	e5d4105f 	ldrb	r1, [r4, #95]	; 0x5f
    b680:	e5d42060 	ldrb	r2, [r4, #96]	; 0x60
    b684:	e1833401 	orr	r3, r3, r1, lsl #8
    b688:	e5d40061 	ldrb	r0, [r4, #97]	; 0x61
    b68c:	e1833802 	orr	r3, r3, r2, lsl #16
    b690:	e1930c00 	orrs	r0, r3, r0, lsl #24
    b694:	0a000038 	beq	b77c <KeyboardPoll+0x328>
    b698:	e3a01000 	mov	r1, #0
    b69c:	eb0020f3 	bl	13a70 <HidGetFieldValue>
    b6a0:	e3500001 	cmp	r0, #1
    b6a4:	0a000034 	beq	b77c <KeyboardPoll+0x328>
    b6a8:	e5d4205f 	ldrb	r2, [r4, #95]	; 0x5f
    b6ac:	e5d4305e 	ldrb	r3, [r4, #94]	; 0x5e
    b6b0:	e5d41060 	ldrb	r1, [r4, #96]	; 0x60
    b6b4:	e3a05000 	mov	r5, #0
    b6b8:	e1833402 	orr	r3, r3, r2, lsl #8
    b6bc:	e5d42061 	ldrb	r2, [r4, #97]	; 0x61
    b6c0:	e1833801 	orr	r3, r3, r1, lsl #16
    b6c4:	e5c4500c 	strb	r5, [r4, #12]
    b6c8:	e5c4500d 	strb	r5, [r4, #13]
    b6cc:	e5c4500e 	strb	r5, [r4, #14]
    b6d0:	e5c4500f 	strb	r5, [r4, #15]
    b6d4:	e1833c02 	orr	r3, r3, r2, lsl #24
    b6d8:	e1a00003 	mov	r0, r3
    b6dc:	e5d33002 	ldrb	r3, [r3, #2]
    b6e0:	e1530005 	cmp	r3, r5
    b6e4:	e1a01005 	mov	r1, r5
    b6e8:	9a000023 	bls	b77c <KeyboardPoll+0x328>
    b6ec:	eb0020df 	bl	13a70 <HidGetFieldValue>
    b6f0:	e2853008 	add	r3, r5, #8
    b6f4:	e1a00800 	lsl	r0, r0, #16
    b6f8:	e1a02820 	lsr	r2, r0, #16
    b6fc:	e0841083 	add	r1, r4, r3, lsl #1
    b700:	e1a00c20 	lsr	r0, r0, #24
    b704:	e7c42083 	strb	r2, [r4, r3, lsl #1]
    b708:	e5c10001 	strb	r0, [r1, #1]
    b70c:	e5d4105f 	ldrb	r1, [r4, #95]	; 0x5f
    b710:	e5d4305e 	ldrb	r3, [r4, #94]	; 0x5e
    b714:	e5d40060 	ldrb	r0, [r4, #96]	; 0x60
    b718:	e1833401 	orr	r3, r3, r1, lsl #8
    b71c:	e5d41061 	ldrb	r1, [r4, #97]	; 0x61
    b720:	e1833800 	orr	r3, r3, r0, lsl #16
    b724:	e1833c01 	orr	r3, r3, r1, lsl #24
    b728:	e1d310b8 	ldrh	r1, [r3, #8]
    b72c:	e1720001 	cmn	r2, r1
    b730:	e2855001 	add	r5, r5, #1
    b734:	0a00000e 	beq	b774 <KeyboardPoll+0x320>
    b738:	e5d4c00d 	ldrb	ip, [r4, #13]
    b73c:	e5d4200c 	ldrb	r2, [r4, #12]
    b740:	e5d4000e 	ldrb	r0, [r4, #14]
    b744:	e5d4100f 	ldrb	r1, [r4, #15]
    b748:	e182240c 	orr	r2, r2, ip, lsl #8
    b74c:	e1822800 	orr	r2, r2, r0, lsl #16
    b750:	e1822c01 	orr	r2, r2, r1, lsl #24
    b754:	e2822001 	add	r2, r2, #1
    b758:	e1a0c422 	lsr	ip, r2, #8
    b75c:	e1a00822 	lsr	r0, r2, #16
    b760:	e1a01c22 	lsr	r1, r2, #24
    b764:	e5c4200c 	strb	r2, [r4, #12]
    b768:	e5c4c00d 	strb	ip, [r4, #13]
    b76c:	e5c4000e 	strb	r0, [r4, #14]
    b770:	e5c4100f 	strb	r1, [r4, #15]
    b774:	e3550006 	cmp	r5, #6
    b778:	1affffd6 	bne	b6d8 <KeyboardPoll+0x284>
    b77c:	e1a00c06 	lsl	r0, r6, #24
    b780:	e1a00c40 	asr	r0, r0, #24
    b784:	e8bd4070 	pop	{r4, r5, r6, lr}
    b788:	e12fff1e 	bx	lr
    b78c:	e3a060f7 	mov	r6, #247	; 0xf7
    b790:	eafffff9 	b	b77c <KeyboardPoll+0x328>
    b794:	0000b9d4 	.word	0x0000b9d4

0000b798 <KeyboardGetModifiers>:
    b798:	e92d4008 	push	{r3, lr}
    b79c:	ebfffcb3 	bl	aa70 <KeyboardIndex>
    b7a0:	e3700001 	cmn	r0, #1
    b7a4:	03a00000 	moveq	r0, #0
    b7a8:	0a00000a 	beq	b7d8 <KeyboardGetModifiers+0x40>
    b7ac:	e59f302c 	ldr	r3, [pc, #44]	; b7e0 <KeyboardGetModifiers+0x48>
    b7b0:	e7933100 	ldr	r3, [r3, r0, lsl #2]
    b7b4:	e5933404 	ldr	r3, [r3, #1028]	; 0x404
    b7b8:	e5d32010 	ldrb	r2, [r3, #16]
    b7bc:	e5d31011 	ldrb	r1, [r3, #17]
    b7c0:	e5d30012 	ldrb	r0, [r3, #18]
    b7c4:	e1821401 	orr	r1, r2, r1, lsl #8
    b7c8:	e5d32013 	ldrb	r2, [r3, #19]
    b7cc:	e1813800 	orr	r3, r1, r0, lsl #16
    b7d0:	e1833c02 	orr	r3, r3, r2, lsl #24
    b7d4:	e5d3001c 	ldrb	r0, [r3, #28]
    b7d8:	e8bd4008 	pop	{r3, lr}
    b7dc:	e12fff1e 	bx	lr
    b7e0:	0000b9d4 	.word	0x0000b9d4

0000b7e4 <KeyboardGetKeyDownCount>:
    b7e4:	e92d4008 	push	{r3, lr}
    b7e8:	ebfffca0 	bl	aa70 <KeyboardIndex>
    b7ec:	e3700001 	cmn	r0, #1
    b7f0:	03a00000 	moveq	r0, #0
    b7f4:	0a000010 	beq	b83c <KeyboardGetKeyDownCount+0x58>
    b7f8:	e59f3044 	ldr	r3, [pc, #68]	; b844 <KeyboardGetKeyDownCount+0x60>
    b7fc:	e7933100 	ldr	r3, [r3, r0, lsl #2]
    b800:	e5932404 	ldr	r2, [r3, #1028]	; 0x404
    b804:	e5d20011 	ldrb	r0, [r2, #17]
    b808:	e5d23010 	ldrb	r3, [r2, #16]
    b80c:	e5d21012 	ldrb	r1, [r2, #18]
    b810:	e1833400 	orr	r3, r3, r0, lsl #8
    b814:	e5d22013 	ldrb	r2, [r2, #19]
    b818:	e1833801 	orr	r3, r3, r1, lsl #16
    b81c:	e1833c02 	orr	r3, r3, r2, lsl #24
    b820:	e5d3100c 	ldrb	r1, [r3, #12]
    b824:	e5d3000d 	ldrb	r0, [r3, #13]
    b828:	e5d3200e 	ldrb	r2, [r3, #14]
    b82c:	e1810400 	orr	r0, r1, r0, lsl #8
    b830:	e5d3300f 	ldrb	r3, [r3, #15]
    b834:	e1800802 	orr	r0, r0, r2, lsl #16
    b838:	e1800c03 	orr	r0, r0, r3, lsl #24
    b83c:	e8bd4008 	pop	{r3, lr}
    b840:	e12fff1e 	bx	lr
    b844:	0000b9d4 	.word	0x0000b9d4

0000b848 <KeyboadGetKeyIsDown>:
    b848:	e92d4038 	push	{r3, r4, r5, lr}
    b84c:	e1a05001 	mov	r5, r1
    b850:	ebfffc86 	bl	aa70 <KeyboardIndex>
    b854:	e3700001 	cmn	r0, #1
    b858:	0a000022 	beq	b8e8 <KeyboadGetKeyIsDown+0xa0>
    b85c:	e59f3098 	ldr	r3, [pc, #152]	; b8fc <KeyboadGetKeyIsDown+0xb4>
    b860:	e7933100 	ldr	r3, [r3, r0, lsl #2]
    b864:	e5933404 	ldr	r3, [r3, #1028]	; 0x404
    b868:	e5d31010 	ldrb	r1, [r3, #16]
    b86c:	e5d3c011 	ldrb	ip, [r3, #17]
    b870:	e5d32012 	ldrb	r2, [r3, #18]
    b874:	e181c40c 	orr	ip, r1, ip, lsl #8
    b878:	e5d33013 	ldrb	r3, [r3, #19]
    b87c:	e18cc802 	orr	ip, ip, r2, lsl #16
    b880:	e18ccc03 	orr	ip, ip, r3, lsl #24
    b884:	e5dc300c 	ldrb	r3, [ip, #12]
    b888:	e5dc000d 	ldrb	r0, [ip, #13]
    b88c:	e5dc200e 	ldrb	r2, [ip, #14]
    b890:	e1830400 	orr	r0, r3, r0, lsl #8
    b894:	e5dc300f 	ldrb	r3, [ip, #15]
    b898:	e1800802 	orr	r0, r0, r2, lsl #16
    b89c:	e1900c03 	orrs	r0, r0, r3, lsl #24
    b8a0:	0a000011 	beq	b8ec <KeyboadGetKeyIsDown+0xa4>
    b8a4:	e5dc3010 	ldrb	r3, [ip, #16]
    b8a8:	e5dc2011 	ldrb	r2, [ip, #17]
    b8ac:	e1833402 	orr	r3, r3, r2, lsl #8
    b8b0:	e1530005 	cmp	r3, r5
    b8b4:	0a00000e 	beq	b8f4 <KeyboadGetKeyIsDown+0xac>
    b8b8:	e3a03000 	mov	r3, #0
    b8bc:	ea000004 	b	b8d4 <KeyboadGetKeyIsDown+0x8c>
    b8c0:	e7dc2082 	ldrb	r2, [ip, r2, lsl #1]
    b8c4:	e5d44001 	ldrb	r4, [r4, #1]
    b8c8:	e1822404 	orr	r2, r2, r4, lsl #8
    b8cc:	e1520005 	cmp	r2, r5
    b8d0:	0a000007 	beq	b8f4 <KeyboadGetKeyIsDown+0xac>
    b8d4:	e2833001 	add	r3, r3, #1
    b8d8:	e2832008 	add	r2, r3, #8
    b8dc:	e1530000 	cmp	r3, r0
    b8e0:	e08c4082 	add	r4, ip, r2, lsl #1
    b8e4:	1afffff5 	bne	b8c0 <KeyboadGetKeyIsDown+0x78>
    b8e8:	e3a00000 	mov	r0, #0
    b8ec:	e8bd4038 	pop	{r3, r4, r5, lr}
    b8f0:	e12fff1e 	bx	lr
    b8f4:	e3a00001 	mov	r0, #1
    b8f8:	eafffffb 	b	b8ec <KeyboadGetKeyIsDown+0xa4>
    b8fc:	0000b9d4 	.word	0x0000b9d4

0000b900 <KeyboardGetKeyDown>:
    b900:	e92d4070 	push	{r4, r5, r6, lr}
    b904:	e1a05000 	mov	r5, r0
    b908:	e1a04001 	mov	r4, r1
    b90c:	ebffffb4 	bl	b7e4 <KeyboardGetKeyDownCount>
    b910:	e1a06000 	mov	r6, r0
    b914:	e1a00005 	mov	r0, r5
    b918:	ebfffc54 	bl	aa70 <KeyboardIndex>
    b91c:	e3700001 	cmn	r0, #1
    b920:	0a000011 	beq	b96c <KeyboardGetKeyDown+0x6c>
    b924:	e59f204c 	ldr	r2, [pc, #76]	; b978 <KeyboardGetKeyDown+0x78>
    b928:	e7923100 	ldr	r3, [r2, r0, lsl #2]
    b92c:	e5933404 	ldr	r3, [r3, #1028]	; 0x404
    b930:	e5d32010 	ldrb	r2, [r3, #16]
    b934:	e5d31011 	ldrb	r1, [r3, #17]
    b938:	e5d30012 	ldrb	r0, [r3, #18]
    b93c:	e1821401 	orr	r1, r2, r1, lsl #8
    b940:	e5d32013 	ldrb	r2, [r3, #19]
    b944:	e1560004 	cmp	r6, r4
    b948:	e1813800 	orr	r3, r1, r0, lsl #16
    b94c:	e1833c02 	orr	r3, r3, r2, lsl #24
    b950:	9a000005 	bls	b96c <KeyboardGetKeyDown+0x6c>
    b954:	e2844008 	add	r4, r4, #8
    b958:	e0832084 	add	r2, r3, r4, lsl #1
    b95c:	e5d20001 	ldrb	r0, [r2, #1]
    b960:	e7d33084 	ldrb	r3, [r3, r4, lsl #1]
    b964:	e1830400 	orr	r0, r3, r0, lsl #8
    b968:	ea000000 	b	b970 <KeyboardGetKeyDown+0x70>
    b96c:	e3a00000 	mov	r0, #0
    b970:	e8bd4070 	pop	{r4, r5, r6, lr}
    b974:	e12fff1e 	bx	lr
    b978:	0000b9d4 	.word	0x0000b9d4

0000b97c <keyboardAddresses>:
	...

0000b98c <keyboardCount>:
    b98c:	00000000 3a434347 4e472820 34202955     ....GCC: (GNU) 4
    b99c:	312e372e 00314100 65610000 00696261     .7.1.A1...aeabi.
    b9ac:	00002701 52410500 4454374d 0600494d     .'....ARM7TDMI..
    b9bc:	09010802 14021201 17011501 19011803     ................
    b9cc:	1e011a01 00012c02                       .....,..

0000b9d4 <keyboards>:
	...

0000b9e4 <MemoryReserve>:
    b9e4:	e1a00001 	mov	r0, r1
    b9e8:	e12fff1e 	bx	lr

0000b9ec <MemoryAllocate>:
    b9ec:	e59f1430 	ldr	r1, [pc, #1072]	; be24 <MemoryAllocate+0x438>
    b9f0:	e5913000 	ldr	r3, [r1]
    b9f4:	e3530000 	cmp	r3, #0
    b9f8:	e92d0ff0 	push	{r4, r5, r6, r7, r8, r9, sl, fp}
    b9fc:	059f3424 	ldreq	r3, [pc, #1060]	; be28 <MemoryAllocate+0x43c>
    ba00:	e59f641c 	ldr	r6, [pc, #1052]	; be24 <MemoryAllocate+0x438>
    ba04:	e2602000 	rsb	r2, r0, #0
    ba08:	05813000 	streq	r3, [r1]
    ba0c:	e2022007 	and	r2, r2, #7
    ba10:	e5963004 	ldr	r3, [r6, #4]
    ba14:	e082b000 	add	fp, r2, r0
    ba18:	e08b3003 	add	r3, fp, r3
    ba1c:	e24dd010 	sub	sp, sp, #16
    ba20:	e3530901 	cmp	r3, #16384	; 0x4000
    ba24:	e58d3008 	str	r3, [sp, #8]
    ba28:	e1a03006 	mov	r3, r6
    ba2c:	8a0000a1 	bhi	bcb8 <MemoryAllocate+0x2cc>
    ba30:	e5961000 	ldr	r1, [r6]
    ba34:	e3710001 	cmn	r1, #1
    ba38:	0a00009e 	beq	bcb8 <MemoryAllocate+0x2cc>
    ba3c:	e59f03e8 	ldr	r0, [pc, #1000]	; be2c <MemoryAllocate+0x440>
    ba40:	e5902000 	ldr	r2, [r0]
    ba44:	e3720001 	cmn	r2, #1
    ba48:	0a000076 	beq	bc28 <MemoryAllocate+0x23c>
    ba4c:	e5d20009 	ldrb	r0, [r2, #9]
    ba50:	e5d23008 	ldrb	r3, [r2, #8]
    ba54:	e5d2c00a 	ldrb	ip, [r2, #10]
    ba58:	e1833400 	orr	r3, r3, r0, lsl #8
    ba5c:	e5d2000b 	ldrb	r0, [r2, #11]
    ba60:	e183380c 	orr	r3, r3, ip, lsl #16
    ba64:	e1833c00 	orr	r3, r3, r0, lsl #24
    ba68:	e3730001 	cmn	r3, #1
    ba6c:	0a0000db 	beq	bde0 <MemoryAllocate+0x3f4>
    ba70:	e5d20004 	ldrb	r0, [r2, #4]
    ba74:	e5d36004 	ldrb	r6, [r3, #4]
    ba78:	e5d29005 	ldrb	r9, [r2, #5]
    ba7c:	e5d37005 	ldrb	r7, [r3, #5]
    ba80:	e5d24001 	ldrb	r4, [r2, #1]
    ba84:	e5d2a006 	ldrb	sl, [r2, #6]
    ba88:	e5d2c000 	ldrb	ip, [r2]
    ba8c:	e5d38006 	ldrb	r8, [r3, #6]
    ba90:	e1809409 	orr	r9, r0, r9, lsl #8
    ba94:	e5d25002 	ldrb	r5, [r2, #2]
    ba98:	e5d20007 	ldrb	r0, [r2, #7]
    ba9c:	e1867407 	orr	r7, r6, r7, lsl #8
    baa0:	e5d36007 	ldrb	r6, [r3, #7]
    baa4:	e18cc404 	orr	ip, ip, r4, lsl #8
    baa8:	e189980a 	orr	r9, r9, sl, lsl #16
    baac:	e5d24003 	ldrb	r4, [r2, #3]
    bab0:	e1877808 	orr	r7, r7, r8, lsl #16
    bab4:	e1899c00 	orr	r9, r9, r0, lsl #24
    bab8:	e18cc805 	orr	ip, ip, r5, lsl #16
    babc:	e1876c06 	orr	r6, r7, r6, lsl #24
    bac0:	e18ccc04 	orr	ip, ip, r4, lsl #24
    bac4:	e0696006 	rsb	r6, r9, r6
    bac8:	e06c6006 	rsb	r6, ip, r6
    bacc:	e15b0006 	cmp	fp, r6
    bad0:	858d100c 	strhi	r1, [sp, #12]
    bad4:	8a000001 	bhi	bae0 <MemoryAllocate+0xf4>
    bad8:	ea000078 	b	bcc0 <MemoryAllocate+0x2d4>
    badc:	e1a03002 	mov	r3, r2
    bae0:	e5d32008 	ldrb	r2, [r3, #8]
    bae4:	e5d3c009 	ldrb	ip, [r3, #9]
    bae8:	e5d3000a 	ldrb	r0, [r3, #10]
    baec:	e5d3100b 	ldrb	r1, [r3, #11]
    baf0:	e182240c 	orr	r2, r2, ip, lsl #8
    baf4:	e1822800 	orr	r2, r2, r0, lsl #16
    baf8:	e1822c01 	orr	r2, r2, r1, lsl #24
    bafc:	e3720001 	cmn	r2, #1
    bb00:	e58d2004 	str	r2, [sp, #4]
    bb04:	0a000070 	beq	bccc <MemoryAllocate+0x2e0>
    bb08:	e5d30004 	ldrb	r0, [r3, #4]
    bb0c:	e5d21004 	ldrb	r1, [r2, #4]
    bb10:	e5d3a005 	ldrb	sl, [r3, #5]
    bb14:	e5d25005 	ldrb	r5, [r2, #5]
    bb18:	e5d39006 	ldrb	r9, [r3, #6]
    bb1c:	e5d37000 	ldrb	r7, [r3]
    bb20:	e5d38001 	ldrb	r8, [r3, #1]
    bb24:	e5d26006 	ldrb	r6, [r2, #6]
    bb28:	e180a40a 	orr	sl, r0, sl, lsl #8
    bb2c:	e1815405 	orr	r5, r1, r5, lsl #8
    bb30:	e5d34007 	ldrb	r4, [r3, #7]
    bb34:	e5d3c002 	ldrb	ip, [r3, #2]
    bb38:	e5d20007 	ldrb	r0, [r2, #7]
    bb3c:	e5d31003 	ldrb	r1, [r3, #3]
    bb40:	e18aa809 	orr	sl, sl, r9, lsl #16
    bb44:	e1877408 	orr	r7, r7, r8, lsl #8
    bb48:	e1855806 	orr	r5, r5, r6, lsl #16
    bb4c:	e18a9c04 	orr	r9, sl, r4, lsl #24
    bb50:	e187c80c 	orr	ip, r7, ip, lsl #16
    bb54:	e1850c00 	orr	r0, r5, r0, lsl #24
    bb58:	e18ccc01 	orr	ip, ip, r1, lsl #24
    bb5c:	e0690000 	rsb	r0, r9, r0
    bb60:	e06c0000 	rsb	r0, ip, r0
    bb64:	e15b0000 	cmp	fp, r0
    bb68:	8affffdb 	bhi	badc <MemoryAllocate+0xf0>
    bb6c:	e59d100c 	ldr	r1, [sp, #12]
    bb70:	e5d10009 	ldrb	r0, [r1, #9]
    bb74:	e5d12008 	ldrb	r2, [r1, #8]
    bb78:	e5d1500a 	ldrb	r5, [r1, #10]
    bb7c:	e1822400 	orr	r2, r2, r0, lsl #8
    bb80:	e5d1400b 	ldrb	r4, [r1, #11]
    bb84:	e089000c 	add	r0, r9, ip
    bb88:	e1822805 	orr	r2, r2, r5, lsl #16
    bb8c:	e1a0a420 	lsr	sl, r0, #8
    bb90:	e1a08820 	lsr	r8, r0, #16
    bb94:	e1a07c20 	lsr	r7, r0, #24
    bb98:	e1a0642b 	lsr	r6, fp, #8
    bb9c:	e1a0582b 	lsr	r5, fp, #16
    bba0:	e1a0cc2b 	lsr	ip, fp, #24
    bba4:	e1922c04 	orrs	r2, r2, r4, lsl #24
    bba8:	e5c10004 	strb	r0, [r1, #4]
    bbac:	e5c1a005 	strb	sl, [r1, #5]
    bbb0:	e5c18006 	strb	r8, [r1, #6]
    bbb4:	e5c17007 	strb	r7, [r1, #7]
    bbb8:	e5c1b000 	strb	fp, [r1]
    bbbc:	e5c16001 	strb	r6, [r1, #1]
    bbc0:	e5c15002 	strb	r5, [r1, #2]
    bbc4:	e5c1c003 	strb	ip, [r1, #3]
    bbc8:	0a00007b 	beq	bdbc <MemoryAllocate+0x3d0>
    bbcc:	e59f6250 	ldr	r6, [pc, #592]	; be24 <MemoryAllocate+0x438>
    bbd0:	e5862000 	str	r2, [r6]
    bbd4:	e59d8004 	ldr	r8, [sp, #4]
    bbd8:	e1a0c821 	lsr	ip, r1, #16
    bbdc:	e1a04421 	lsr	r4, r1, #8
    bbe0:	e1a02c21 	lsr	r2, r1, #24
    bbe4:	e1a07428 	lsr	r7, r8, #8
    bbe8:	e1a06828 	lsr	r6, r8, #16
    bbec:	e1a05c28 	lsr	r5, r8, #24
    bbf0:	e5c18008 	strb	r8, [r1, #8]
    bbf4:	e5c17009 	strb	r7, [r1, #9]
    bbf8:	e5c1600a 	strb	r6, [r1, #10]
    bbfc:	e5c1500b 	strb	r5, [r1, #11]
    bc00:	e5c31008 	strb	r1, [r3, #8]
    bc04:	e5c34009 	strb	r4, [r3, #9]
    bc08:	e5c3c00a 	strb	ip, [r3, #10]
    bc0c:	e5c3200b 	strb	r2, [r3, #11]
    bc10:	e59dc008 	ldr	ip, [sp, #8]
    bc14:	e59f1208 	ldr	r1, [pc, #520]	; be24 <MemoryAllocate+0x438>
    bc18:	e581c004 	str	ip, [r1, #4]
    bc1c:	e28dd010 	add	sp, sp, #16
    bc20:	e8bd0ff0 	pop	{r4, r5, r6, r7, r8, r9, sl, fp}
    bc24:	e12fff1e 	bx	lr
    bc28:	e5d17009 	ldrb	r7, [r1, #9]
    bc2c:	e5d14008 	ldrb	r4, [r1, #8]
    bc30:	e5d1600a 	ldrb	r6, [r1, #10]
    bc34:	e59fc1f4 	ldr	ip, [pc, #500]	; be30 <MemoryAllocate+0x444>
    bc38:	e1844407 	orr	r4, r4, r7, lsl #8
    bc3c:	e1844806 	orr	r4, r4, r6, lsl #16
    bc40:	e1a0842b 	lsr	r8, fp, #8
    bc44:	e1a0642c 	lsr	r6, ip, #8
    bc48:	e1a0a82b 	lsr	sl, fp, #16
    bc4c:	e1a09c2b 	lsr	r9, fp, #24
    bc50:	e5d1500b 	ldrb	r5, [r1, #11]
    bc54:	e58d6004 	str	r6, [sp, #4]
    bc58:	e5801000 	str	r1, [r0]
    bc5c:	e5c12008 	strb	r2, [r1, #8]
    bc60:	e5c12009 	strb	r2, [r1, #9]
    bc64:	e5c1200a 	strb	r2, [r1, #10]
    bc68:	e5c1200b 	strb	r2, [r1, #11]
    bc6c:	e5c1b000 	strb	fp, [r1]
    bc70:	e5c18001 	strb	r8, [r1, #1]
    bc74:	e5c1a002 	strb	sl, [r1, #2]
    bc78:	e5c19003 	strb	r9, [r1, #3]
    bc7c:	e5c1c004 	strb	ip, [r1, #4]
    bc80:	e59d8004 	ldr	r8, [sp, #4]
    bc84:	e1a0782c 	lsr	r7, ip, #16
    bc88:	e1a06c2c 	lsr	r6, ip, #24
    bc8c:	e1944c05 	orrs	r4, r4, r5, lsl #24
    bc90:	e5c18005 	strb	r8, [r1, #5]
    bc94:	e5c17006 	strb	r7, [r1, #6]
    bc98:	e5c16007 	strb	r6, [r1, #7]
    bc9c:	15834000 	strne	r4, [r3]
    bca0:	0a000050 	beq	bde8 <MemoryAllocate+0x3fc>
    bca4:	e59dc008 	ldr	ip, [sp, #8]
    bca8:	e59f1174 	ldr	r1, [pc, #372]	; be24 <MemoryAllocate+0x438>
    bcac:	e59f017c 	ldr	r0, [pc, #380]	; be30 <MemoryAllocate+0x444>
    bcb0:	e581c004 	str	ip, [r1, #4]
    bcb4:	eaffffd8 	b	bc1c <MemoryAllocate+0x230>
    bcb8:	e3a00000 	mov	r0, #0
    bcbc:	eaffffd6 	b	bc1c <MemoryAllocate+0x230>
    bcc0:	e58d3004 	str	r3, [sp, #4]
    bcc4:	e1a03002 	mov	r3, r2
    bcc8:	eaffffa8 	b	bb70 <MemoryAllocate+0x184>
    bccc:	e59d100c 	ldr	r1, [sp, #12]
    bcd0:	e5d32000 	ldrb	r2, [r3]
    bcd4:	e5d3c001 	ldrb	ip, [r3, #1]
    bcd8:	e5d30002 	ldrb	r0, [r3, #2]
    bcdc:	e182240c 	orr	r2, r2, ip, lsl #8
    bce0:	e5d34003 	ldrb	r4, [r3, #3]
    bce4:	e1822800 	orr	r2, r2, r0, lsl #16
    bce8:	e1824c04 	orr	r4, r2, r4, lsl #24
    bcec:	e59f2140 	ldr	r2, [pc, #320]	; be34 <MemoryAllocate+0x448>
    bcf0:	e0642002 	rsb	r2, r4, r2
    bcf4:	e15b0002 	cmp	fp, r2
    bcf8:	8affffee 	bhi	bcb8 <MemoryAllocate+0x2cc>
    bcfc:	e5d32004 	ldrb	r2, [r3, #4]
    bd00:	e5d30005 	ldrb	r0, [r3, #5]
    bd04:	e5d35006 	ldrb	r5, [r3, #6]
    bd08:	e5d36007 	ldrb	r6, [r3, #7]
    bd0c:	e1820400 	orr	r0, r2, r0, lsl #8
    bd10:	e5d1c009 	ldrb	ip, [r1, #9]
    bd14:	e5d12008 	ldrb	r2, [r1, #8]
    bd18:	e1800805 	orr	r0, r0, r5, lsl #16
    bd1c:	e5d1500a 	ldrb	r5, [r1, #10]
    bd20:	e1800c06 	orr	r0, r0, r6, lsl #24
    bd24:	e182240c 	orr	r2, r2, ip, lsl #8
    bd28:	e5d1c00b 	ldrb	ip, [r1, #11]
    bd2c:	e0800004 	add	r0, r0, r4
    bd30:	e1822805 	orr	r2, r2, r5, lsl #16
    bd34:	e1a0a420 	lsr	sl, r0, #8
    bd38:	e1a08820 	lsr	r8, r0, #16
    bd3c:	e1a07c20 	lsr	r7, r0, #24
    bd40:	e1a0642b 	lsr	r6, fp, #8
    bd44:	e1a0582b 	lsr	r5, fp, #16
    bd48:	e1a04c2b 	lsr	r4, fp, #24
    bd4c:	e1922c0c 	orrs	r2, r2, ip, lsl #24
    bd50:	e5c10004 	strb	r0, [r1, #4]
    bd54:	e5c1a005 	strb	sl, [r1, #5]
    bd58:	e5c18006 	strb	r8, [r1, #6]
    bd5c:	e5c17007 	strb	r7, [r1, #7]
    bd60:	e5c1b000 	strb	fp, [r1]
    bd64:	e5c16001 	strb	r6, [r1, #1]
    bd68:	e5c15002 	strb	r5, [r1, #2]
    bd6c:	e5c14003 	strb	r4, [r1, #3]
    bd70:	0a000022 	beq	be00 <MemoryAllocate+0x414>
    bd74:	e59fc0a8 	ldr	ip, [pc, #168]	; be24 <MemoryAllocate+0x438>
    bd78:	e58c2000 	str	r2, [ip]
    bd7c:	e3e02000 	mvn	r2, #0
    bd80:	e1a05421 	lsr	r5, r1, #8
    bd84:	e1a04821 	lsr	r4, r1, #16
    bd88:	e1a0cc21 	lsr	ip, r1, #24
    bd8c:	e5c12008 	strb	r2, [r1, #8]
    bd90:	e5c12009 	strb	r2, [r1, #9]
    bd94:	e5c1200a 	strb	r2, [r1, #10]
    bd98:	e5c1200b 	strb	r2, [r1, #11]
    bd9c:	e5c31008 	strb	r1, [r3, #8]
    bda0:	e5c35009 	strb	r5, [r3, #9]
    bda4:	e5c3400a 	strb	r4, [r3, #10]
    bda8:	e5c3c00b 	strb	ip, [r3, #11]
    bdac:	e59d1008 	ldr	r1, [sp, #8]
    bdb0:	e59f206c 	ldr	r2, [pc, #108]	; be24 <MemoryAllocate+0x438>
    bdb4:	e5821004 	str	r1, [r2, #4]
    bdb8:	eaffff97 	b	bc1c <MemoryAllocate+0x230>
    bdbc:	e59fc074 	ldr	ip, [pc, #116]	; be38 <MemoryAllocate+0x44c>
    bdc0:	e281200c 	add	r2, r1, #12
    bdc4:	e152000c 	cmp	r2, ip
    bdc8:	359f8054 	ldrcc	r8, [pc, #84]	; be24 <MemoryAllocate+0x438>
    bdcc:	259fc050 	ldrcs	ip, [pc, #80]	; be24 <MemoryAllocate+0x438>
    bdd0:	23e02000 	mvncs	r2, #0
    bdd4:	35882000 	strcc	r2, [r8]
    bdd8:	258c2000 	strcs	r2, [ip]
    bddc:	eaffff7c 	b	bbd4 <MemoryAllocate+0x1e8>
    bde0:	e1a03002 	mov	r3, r2
    bde4:	eaffffb9 	b	bcd0 <MemoryAllocate+0x2e4>
    bde8:	e59f2048 	ldr	r2, [pc, #72]	; be38 <MemoryAllocate+0x44c>
    bdec:	e281100c 	add	r1, r1, #12
    bdf0:	e1510002 	cmp	r1, r2
    bdf4:	23e01000 	mvncs	r1, #0
    bdf8:	e5831000 	str	r1, [r3]
    bdfc:	eaffffa8 	b	bca4 <MemoryAllocate+0x2b8>
    be00:	e59fc030 	ldr	ip, [pc, #48]	; be38 <MemoryAllocate+0x44c>
    be04:	e281200c 	add	r2, r1, #12
    be08:	e152000c 	cmp	r2, ip
    be0c:	359f6010 	ldrcc	r6, [pc, #16]	; be24 <MemoryAllocate+0x438>
    be10:	259f800c 	ldrcs	r8, [pc, #12]	; be24 <MemoryAllocate+0x438>
    be14:	23e02000 	mvncs	r2, #0
    be18:	35862000 	strcc	r2, [r6]
    be1c:	25882000 	strcs	r2, [r8]
    be20:	eaffffd5 	b	bd7c <MemoryAllocate+0x390>
    be24:	0000bfa4 	.word	0x0000bfa4
    be28:	0000ffe0 	.word	0x0000ffe0
    be2c:	0000a914 	.word	0x0000a914
    be30:	0000bfe0 	.word	0x0000bfe0
    be34:	0000ffe1 	.word	0x0000ffe1
    be38:	00010be0 	.word	0x00010be0

0000be3c <MemoryDeallocate>:
    be3c:	e59f2108 	ldr	r2, [pc, #264]	; bf4c <MemoryDeallocate+0x110>
    be40:	e5923000 	ldr	r3, [r2]
    be44:	e3730001 	cmn	r3, #1
    be48:	e92d0030 	push	{r4, r5}
    be4c:	0a00001e 	beq	becc <MemoryDeallocate+0x90>
    be50:	e5d3c005 	ldrb	ip, [r3, #5]
    be54:	e5d31004 	ldrb	r1, [r3, #4]
    be58:	e5d34006 	ldrb	r4, [r3, #6]
    be5c:	e181140c 	orr	r1, r1, ip, lsl #8
    be60:	e5d3c007 	ldrb	ip, [r3, #7]
    be64:	e1811804 	orr	r1, r1, r4, lsl #16
    be68:	e1811c0c 	orr	r1, r1, ip, lsl #24
    be6c:	e1500001 	cmp	r0, r1
    be70:	0a000018 	beq	bed8 <MemoryDeallocate+0x9c>
    be74:	e1a02003 	mov	r2, r3
    be78:	ea000009 	b	bea4 <MemoryDeallocate+0x68>
    be7c:	e5d34005 	ldrb	r4, [r3, #5]
    be80:	e5d3c004 	ldrb	ip, [r3, #4]
    be84:	e5d35006 	ldrb	r5, [r3, #6]
    be88:	e18cc404 	orr	ip, ip, r4, lsl #8
    be8c:	e5d34007 	ldrb	r4, [r3, #7]
    be90:	e18cc805 	orr	ip, ip, r5, lsl #16
    be94:	e18ccc04 	orr	ip, ip, r4, lsl #24
    be98:	e150000c 	cmp	r0, ip
    be9c:	0a00000c 	beq	bed4 <MemoryDeallocate+0x98>
    bea0:	e1a02001 	mov	r2, r1
    bea4:	e5d31008 	ldrb	r1, [r3, #8]
    bea8:	e5d3c009 	ldrb	ip, [r3, #9]
    beac:	e5d3400a 	ldrb	r4, [r3, #10]
    beb0:	e181c40c 	orr	ip, r1, ip, lsl #8
    beb4:	e5d3100b 	ldrb	r1, [r3, #11]
    beb8:	e18c3804 	orr	r3, ip, r4, lsl #16
    bebc:	e1833c01 	orr	r3, r3, r1, lsl #24
    bec0:	e3730001 	cmn	r3, #1
    bec4:	e5921008 	ldr	r1, [r2, #8]
    bec8:	1affffeb 	bne	be7c <MemoryDeallocate+0x40>
    becc:	e8bd0030 	pop	{r4, r5}
    bed0:	e12fff1e 	bx	lr
    bed4:	e2822008 	add	r2, r2, #8
    bed8:	e5d3c001 	ldrb	ip, [r3, #1]
    bedc:	e5d30000 	ldrb	r0, [r3]
    bee0:	e59f1068 	ldr	r1, [pc, #104]	; bf50 <MemoryDeallocate+0x114>
    bee4:	e5d35002 	ldrb	r5, [r3, #2]
    bee8:	e5d34003 	ldrb	r4, [r3, #3]
    beec:	e180040c 	orr	r0, r0, ip, lsl #8
    bef0:	e1800805 	orr	r0, r0, r5, lsl #16
    bef4:	e591c004 	ldr	ip, [r1, #4]
    bef8:	e1800c04 	orr	r0, r0, r4, lsl #24
    befc:	e060000c 	rsb	r0, r0, ip
    bf00:	e5810004 	str	r0, [r1, #4]
    bf04:	e5d30008 	ldrb	r0, [r3, #8]
    bf08:	e5d35009 	ldrb	r5, [r3, #9]
    bf0c:	e5d3400a 	ldrb	r4, [r3, #10]
    bf10:	e5d3c00b 	ldrb	ip, [r3, #11]
    bf14:	e1800405 	orr	r0, r0, r5, lsl #8
    bf18:	e1800804 	orr	r0, r0, r4, lsl #16
    bf1c:	e1800c0c 	orr	r0, r0, ip, lsl #24
    bf20:	e5820000 	str	r0, [r2]
    bf24:	e5d12000 	ldrb	r2, [r1]
    bf28:	e5c32008 	strb	r2, [r3, #8]
    bf2c:	e5d12001 	ldrb	r2, [r1, #1]
    bf30:	e5c32009 	strb	r2, [r3, #9]
    bf34:	e5d12002 	ldrb	r2, [r1, #2]
    bf38:	e5c3200a 	strb	r2, [r3, #10]
    bf3c:	e5d12003 	ldrb	r2, [r1, #3]
    bf40:	e5c3200b 	strb	r2, [r3, #11]
    bf44:	e5813000 	str	r3, [r1]
    bf48:	eaffffdf 	b	becc <MemoryDeallocate+0x90>
    bf4c:	0000a914 	.word	0x0000a914
    bf50:	0000bfa4 	.word	0x0000bfa4

0000bf54 <MemoryCopy>:
    bf54:	e3520000 	cmp	r2, #0
    bf58:	012fff1e 	bxeq	lr
    bf5c:	e1510000 	cmp	r1, r0
    bf60:	2a000006 	bcs	bf80 <MemoryCopy+0x2c>
    bf64:	e2411001 	sub	r1, r1, #1
    bf68:	e0802002 	add	r2, r0, r2
    bf6c:	e5f13001 	ldrb	r3, [r1, #1]!
    bf70:	e4c03001 	strb	r3, [r0], #1
    bf74:	e1500002 	cmp	r0, r2
    bf78:	1afffffb 	bne	bf6c <MemoryCopy+0x18>
    bf7c:	e12fff1e 	bx	lr
    bf80:	e2423001 	sub	r3, r2, #1
    bf84:	e0811002 	add	r1, r1, r2
    bf88:	e0800002 	add	r0, r0, r2
    bf8c:	e5712001 	ldrb	r2, [r1, #-1]!
    bf90:	e2433001 	sub	r3, r3, #1
    bf94:	e3730001 	cmn	r3, #1
    bf98:	e5602001 	strb	r2, [r0, #-1]!
    bf9c:	1afffffa 	bne	bf8c <MemoryCopy+0x38>
    bfa0:	e12fff1e 	bx	lr

0000bfa4 <FirstFreeAllocation>:
    bfa4:	00000000                                ....

0000bfa8 <allocated>:
    bfa8:	00000000 00003141 61656100 01006962     ....A1...aeabi..
    bfb8:	00000027 4d524105 4d445437 02060049     '....ARM7TDMI...
    bfc8:	01090108 01140212 03170115 01190118     ................
    bfd8:	021e011a 0000012c                       ....,...

0000bfe0 <Heap>:
	...

0000ffe0 <Allocations>:
	...

00010be0 <UsbGetRootHub>:
   10be0:	e59f3004 	ldr	r3, [pc, #4]	; 10bec <UsbGetRootHub+0xc>
   10be4:	e5930000 	ldr	r0, [r3]
   10be8:	e12fff1e 	bx	lr
   10bec:	00011cc8 	.word	0x00011cc8

00010bf0 <UsbPrintDeviceTree>:
   10bf0:	e1a02081 	lsl	r2, r1, #1
   10bf4:	e59f30b8 	ldr	r3, [pc, #184]	; 10cb4 <UsbPrintDeviceTree+0xc4>
   10bf8:	e92d4070 	push	{r4, r5, r6, lr}
   10bfc:	e2822001 	add	r2, r2, #1
   10c00:	e3a05000 	mov	r5, #0
   10c04:	e3500000 	cmp	r0, #0
   10c08:	e7c25003 	strb	r5, [r2, r3]
   10c0c:	0a000006 	beq	10c2c <UsbPrintDeviceTree+0x3c>
   10c10:	e3a0c020 	mov	ip, #32
   10c14:	e7c2c003 	strb	ip, [r2, r3]
   10c18:	e5904404 	ldr	r4, [r0, #1028]	; 0x404
   10c1c:	e59f2094 	ldr	r2, [pc, #148]	; 10cb8 <UsbPrintDeviceTree+0xc8>
   10c20:	e5940000 	ldr	r0, [r4]
   10c24:	e1500002 	cmp	r0, r2
   10c28:	0a000001 	beq	10c34 <UsbPrintDeviceTree+0x44>
   10c2c:	e8bd4070 	pop	{r4, r5, r6, lr}
   10c30:	e12fff1e 	bx	lr
   10c34:	e7c3c081 	strb	ip, [r3, r1, lsl #1]
   10c38:	e5d42011 	ldrb	r2, [r4, #17]
   10c3c:	e5d43010 	ldrb	r3, [r4, #16]
   10c40:	e5d40012 	ldrb	r0, [r4, #18]
   10c44:	e1833402 	orr	r3, r3, r2, lsl #8
   10c48:	e5d42013 	ldrb	r2, [r4, #19]
   10c4c:	e1833800 	orr	r3, r3, r0, lsl #16
   10c50:	e1932c02 	orrs	r2, r3, r2, lsl #24
   10c54:	0afffff4 	beq	10c2c <UsbPrintDeviceTree+0x3c>
   10c58:	e2816001 	add	r6, r1, #1
   10c5c:	e285300e 	add	r3, r5, #14
   10c60:	e0843103 	add	r3, r4, r3, lsl #2
   10c64:	e5d30005 	ldrb	r0, [r3, #5]
   10c68:	e5d32004 	ldrb	r2, [r3, #4]
   10c6c:	e5d31006 	ldrb	r1, [r3, #6]
   10c70:	e1822400 	orr	r2, r2, r0, lsl #8
   10c74:	e5d30007 	ldrb	r0, [r3, #7]
   10c78:	e1823801 	orr	r3, r2, r1, lsl #16
   10c7c:	e1930c00 	orrs	r0, r3, r0, lsl #24
   10c80:	e1a01006 	mov	r1, r6
   10c84:	ebffffd9 	bl	10bf0 <UsbPrintDeviceTree>
   10c88:	e5d42011 	ldrb	r2, [r4, #17]
   10c8c:	e5d43010 	ldrb	r3, [r4, #16]
   10c90:	e5d41012 	ldrb	r1, [r4, #18]
   10c94:	e1833402 	orr	r3, r3, r2, lsl #8
   10c98:	e5d42013 	ldrb	r2, [r4, #19]
   10c9c:	e1833801 	orr	r3, r3, r1, lsl #16
   10ca0:	e2855001 	add	r5, r5, #1
   10ca4:	e1833c02 	orr	r3, r3, r2, lsl #24
   10ca8:	e1530005 	cmp	r3, r5
   10cac:	8affffea 	bhi	10c5c <UsbPrintDeviceTree+0x6c>
   10cb0:	eaffffdd 	b	10c2c <UsbPrintDeviceTree+0x3c>
   10cb4:	00011f14 	.word	0x00011f14
   10cb8:	48554230 	.word	0x48554230

00010cbc <UsbControlMessage>:
   10cbc:	e92d40f0 	push	{r4, r5, r6, r7, lr}
   10cc0:	e24dd014 	sub	sp, sp, #20
   10cc4:	e59dc028 	ldr	ip, [sp, #40]	; 0x28
   10cc8:	e58dc000 	str	ip, [sp]
   10ccc:	e1a05000 	mov	r5, r0
   10cd0:	e58d100c 	str	r1, [sp, #12]
   10cd4:	e59d602c 	ldr	r6, [sp, #44]	; 0x2c
   10cd8:	eb0011ec 	bl	15490 <HcdSumbitControlMessage>
   10cdc:	e2507000 	subs	r7, r0, #0
   10ce0:	1a00002a 	bne	10d90 <UsbControlMessage+0xd4>
   10ce4:	e3560000 	cmp	r6, #0
   10ce8:	e2466001 	sub	r6, r6, #1
   10cec:	0a00000c 	beq	10d24 <UsbControlMessage+0x68>
   10cf0:	e5953008 	ldr	r3, [r5, #8]
   10cf4:	e3530000 	cmp	r3, #0
   10cf8:	aa000009 	bge	10d24 <UsbControlMessage+0x68>
   10cfc:	e1a04007 	mov	r4, r7
   10d00:	ea000003 	b	10d14 <UsbControlMessage+0x58>
   10d04:	e5953008 	ldr	r3, [r5, #8]
   10d08:	e3530000 	cmp	r3, #0
   10d0c:	e2844001 	add	r4, r4, #1
   10d10:	aa000003 	bge	10d24 <UsbControlMessage+0x68>
   10d14:	e3a00ffa 	mov	r0, #1000	; 0x3e8
   10d18:	eb001689 	bl	16744 <MicroDelay>
   10d1c:	e1560004 	cmp	r6, r4
   10d20:	1afffff7 	bne	10d04 <UsbControlMessage+0x48>
   10d24:	e5953008 	ldr	r3, [r5, #8]
   10d28:	e3530000 	cmp	r3, #0
   10d2c:	ba00001e 	blt	10dac <UsbControlMessage+0xf0>
   10d30:	e5953008 	ldr	r3, [r5, #8]
   10d34:	e3c33102 	bic	r3, r3, #-2147483648	; 0x80000000
   10d38:	e3530000 	cmp	r3, #0
   10d3c:	0a000013 	beq	10d90 <UsbControlMessage+0xd4>
   10d40:	e59543fc 	ldr	r4, [r5, #1020]	; 0x3fc
   10d44:	e3540000 	cmp	r4, #0
   10d48:	0a000010 	beq	10d90 <UsbControlMessage+0xd4>
   10d4c:	e5d55007 	ldrb	r5, [r5, #7]
   10d50:	e1a00004 	mov	r0, r4
   10d54:	e1a01005 	mov	r1, r5
   10d58:	eb000d9d 	bl	143d4 <HubCheckConnection>
   10d5c:	e2507000 	subs	r7, r0, #0
   10d60:	1a00000f 	bne	10da4 <UsbControlMessage+0xe8>
   10d64:	e5943404 	ldr	r3, [r4, #1028]	; 0x404
   10d68:	e285500e 	add	r5, r5, #14
   10d6c:	e0833105 	add	r3, r3, r5, lsl #2
   10d70:	e5d32004 	ldrb	r2, [r3, #4]
   10d74:	e5d31005 	ldrb	r1, [r3, #5]
   10d78:	e5d30006 	ldrb	r0, [r3, #6]
   10d7c:	e1821401 	orr	r1, r2, r1, lsl #8
   10d80:	e5d32007 	ldrb	r2, [r3, #7]
   10d84:	e1813800 	orr	r3, r1, r0, lsl #16
   10d88:	e1932c02 	orrs	r2, r3, r2, lsl #24
   10d8c:	0a000004 	beq	10da4 <UsbControlMessage+0xe8>
   10d90:	e1a00c07 	lsl	r0, r7, #24
   10d94:	e1a00c40 	asr	r0, r0, #24
   10d98:	e28dd014 	add	sp, sp, #20
   10d9c:	e8bd40f0 	pop	{r4, r5, r6, r7, lr}
   10da0:	e12fff1e 	bx	lr
   10da4:	e3a070f7 	mov	r7, #247	; 0xf7
   10da8:	eafffff8 	b	10d90 <UsbControlMessage+0xd4>
   10dac:	e3a070f8 	mov	r7, #248	; 0xf8
   10db0:	eafffff6 	b	10d90 <UsbControlMessage+0xd4>

00010db4 <UsbGetDescriptor>:
   10db4:	e92d40f0 	push	{r4, r5, r6, r7, lr}
   10db8:	e1a04000 	mov	r4, r0
   10dbc:	e5d0001b 	ldrb	r0, [r0, #27]
   10dc0:	e20000ff 	and	r0, r0, #255	; 0xff
   10dc4:	e24dd01c 	sub	sp, sp, #28
   10dc8:	e3a0c000 	mov	ip, #0
   10dcc:	e3500008 	cmp	r0, #8
   10dd0:	e1a05003 	mov	r5, r3
   10dd4:	e59de034 	ldr	lr, [sp, #52]	; 0x34
   10dd8:	e58dc00c 	str	ip, [sp, #12]
   10ddc:	9a000005 	bls	10df8 <UsbGetDescriptor+0x44>
   10de0:	e3500010 	cmp	r0, #16
   10de4:	93a0c001 	movls	ip, #1
   10de8:	9a000002 	bls	10df8 <UsbGetDescriptor+0x44>
   10dec:	e3500020 	cmp	r0, #32
   10df0:	83a0c003 	movhi	ip, #3
   10df4:	93a0c002 	movls	ip, #2
   10df8:	e5dd600c 	ldrb	r6, [sp, #12]
   10dfc:	e5d47004 	ldrb	r7, [r4, #4]
   10e00:	e20660f0 	and	r6, r6, #240	; 0xf0
   10e04:	e186c00c 	orr	ip, r6, ip
   10e08:	e2077003 	and	r7, r7, #3
   10e0c:	e5dd300e 	ldrb	r3, [sp, #14]
   10e10:	e18cc107 	orr	ip, ip, r7, lsl #2
   10e14:	e5d46000 	ldrb	r6, [r4]
   10e18:	e5cdc00c 	strb	ip, [sp, #12]
   10e1c:	e5ddc03c 	ldrb	ip, [sp, #60]	; 0x3c
   10e20:	e3833004 	orr	r3, r3, #4
   10e24:	e5cd300e 	strb	r3, [sp, #14]
   10e28:	e1e0cc8c 	mvn	ip, ip, lsl #25
   10e2c:	e28d3010 	add	r3, sp, #16
   10e30:	e5cd600d 	strb	r6, [sp, #13]
   10e34:	e1e0ccac 	mvn	ip, ip, lsr #25
   10e38:	e58d3000 	str	r3, [sp]
   10e3c:	e3a0300a 	mov	r3, #10
   10e40:	e1826401 	orr	r6, r2, r1, lsl #8
   10e44:	e58d3004 	str	r3, [sp, #4]
   10e48:	e5cdc010 	strb	ip, [sp, #16]
   10e4c:	e1a00004 	mov	r0, r4
   10e50:	e3a0c006 	mov	ip, #6
   10e54:	e59d100c 	ldr	r1, [sp, #12]
   10e58:	e59d2030 	ldr	r2, [sp, #48]	; 0x30
   10e5c:	e1a0300e 	mov	r3, lr
   10e60:	e5cdc011 	strb	ip, [sp, #17]
   10e64:	e1cd61b2 	strh	r6, [sp, #18]
   10e68:	e1cd51b4 	strh	r5, [sp, #20]
   10e6c:	e1cde1b6 	strh	lr, [sp, #22]
   10e70:	ebffff91 	bl	10cbc <UsbControlMessage>
   10e74:	e3500000 	cmp	r0, #0
   10e78:	1a000003 	bne	10e8c <UsbGetDescriptor+0xd8>
   10e7c:	e5942408 	ldr	r2, [r4, #1032]	; 0x408
   10e80:	e59d3038 	ldr	r3, [sp, #56]	; 0x38
   10e84:	e1520003 	cmp	r2, r3
   10e88:	33a000fc 	movcc	r0, #252	; 0xfc
   10e8c:	e1a00c00 	lsl	r0, r0, #24
   10e90:	e1a00c40 	asr	r0, r0, #24
   10e94:	e28dd01c 	add	sp, sp, #28
   10e98:	e8bd40f0 	pop	{r4, r5, r6, r7, lr}
   10e9c:	e12fff1e 	bx	lr

00010ea0 <UsbGetString>:
   10ea0:	e92d47f0 	push	{r4, r5, r6, r7, r8, r9, sl, lr}
   10ea4:	e24dd010 	sub	sp, sp, #16
   10ea8:	e59d5030 	ldr	r5, [sp, #48]	; 0x30
   10eac:	e1a09000 	mov	r9, r0
   10eb0:	e1a0a001 	mov	sl, r1
   10eb4:	e1a08002 	mov	r8, r2
   10eb8:	e1a07003 	mov	r7, r3
   10ebc:	e3a04003 	mov	r4, #3
   10ec0:	e3a06000 	mov	r6, #0
   10ec4:	e58d7000 	str	r7, [sp]
   10ec8:	e58d5004 	str	r5, [sp, #4]
   10ecc:	e58d5008 	str	r5, [sp, #8]
   10ed0:	e58d600c 	str	r6, [sp, #12]
   10ed4:	e1a00009 	mov	r0, r9
   10ed8:	e3a01003 	mov	r1, #3
   10edc:	e1a0200a 	mov	r2, sl
   10ee0:	e1a03008 	mov	r3, r8
   10ee4:	ebffffb2 	bl	10db4 <UsbGetDescriptor>
   10ee8:	e3500000 	cmp	r0, #0
   10eec:	0a000001 	beq	10ef8 <UsbGetString+0x58>
   10ef0:	e2544001 	subs	r4, r4, #1
   10ef4:	1afffff2 	bne	10ec4 <UsbGetString+0x24>
   10ef8:	e1a00c00 	lsl	r0, r0, #24
   10efc:	e1a00c40 	asr	r0, r0, #24
   10f00:	e28dd010 	add	sp, sp, #16
   10f04:	e8bd47f0 	pop	{r4, r5, r6, r7, r8, r9, sl, lr}
   10f08:	e12fff1e 	bx	lr

00010f0c <UsbReadStringLang>:
   10f0c:	e92d41f0 	push	{r4, r5, r6, r7, r8, lr}
   10f10:	e24dd008 	sub	sp, sp, #8
   10f14:	e59d4020 	ldr	r4, [sp, #32]
   10f18:	e3540002 	cmp	r4, #2
   10f1c:	31a0c004 	movcc	ip, r4
   10f20:	23a0c002 	movcs	ip, #2
   10f24:	e58dc000 	str	ip, [sp]
   10f28:	e1a05000 	mov	r5, r0
   10f2c:	e1a08001 	mov	r8, r1
   10f30:	e1a07002 	mov	r7, r2
   10f34:	e1a06003 	mov	r6, r3
   10f38:	ebffffd8 	bl	10ea0 <UsbGetString>
   10f3c:	e3500000 	cmp	r0, #0
   10f40:	1a00000d 	bne	10f7c <UsbReadStringLang+0x70>
   10f44:	e5953408 	ldr	r3, [r5, #1032]	; 0x408
   10f48:	e1530004 	cmp	r3, r4
   10f4c:	0a00000a 	beq	10f7c <UsbReadStringLang+0x70>
   10f50:	e5d63000 	ldrb	r3, [r6]
   10f54:	e1530004 	cmp	r3, r4
   10f58:	958d3020 	strls	r3, [sp, #32]
   10f5c:	858d4020 	strhi	r4, [sp, #32]
   10f60:	e1a00005 	mov	r0, r5
   10f64:	e1a01008 	mov	r1, r8
   10f68:	e1a02007 	mov	r2, r7
   10f6c:	e1a03006 	mov	r3, r6
   10f70:	e28dd008 	add	sp, sp, #8
   10f74:	e8bd41f0 	pop	{r4, r5, r6, r7, r8, lr}
   10f78:	eaffffc8 	b	10ea0 <UsbGetString>
   10f7c:	e1a00c00 	lsl	r0, r0, #24
   10f80:	e1a00c40 	asr	r0, r0, #24
   10f84:	e28dd008 	add	sp, sp, #8
   10f88:	e8bd41f0 	pop	{r4, r5, r6, r7, r8, lr}
   10f8c:	e12fff1e 	bx	lr

00010f90 <UsbReadString>:
   10f90:	e92d41f0 	push	{r4, r5, r6, r7, r8, lr}
   10f94:	e3510000 	cmp	r1, #0
   10f98:	13520000 	cmpne	r2, #0
   10f9c:	e1a06001 	mov	r6, r1
   10fa0:	e24dd010 	sub	sp, sp, #16
   10fa4:	e1a04002 	mov	r4, r2
   10fa8:	13a01000 	movne	r1, #0
   10fac:	03a01001 	moveq	r1, #1
   10fb0:	e1a07000 	mov	r7, r0
   10fb4:	e1a05003 	mov	r5, r3
   10fb8:	0a00002e 	beq	11078 <UsbReadString+0xe8>
   10fbc:	e3a03004 	mov	r3, #4
   10fc0:	e58d3000 	str	r3, [sp]
   10fc4:	e1a02001 	mov	r2, r1
   10fc8:	e28d300c 	add	r3, sp, #12
   10fcc:	ebffffce 	bl	10f0c <UsbReadStringLang>
   10fd0:	e2508000 	subs	r8, r0, #0
   10fd4:	1a000022 	bne	11064 <UsbReadString+0xd4>
   10fd8:	e5973408 	ldr	r3, [r7, #1032]	; 0x408
   10fdc:	e3530003 	cmp	r3, #3
   10fe0:	9a000026 	bls	11080 <UsbReadString+0xf0>
   10fe4:	e1dd20be 	ldrh	r2, [sp, #14]
   10fe8:	e58d5000 	str	r5, [sp]
   10fec:	e1a00007 	mov	r0, r7
   10ff0:	e1a01006 	mov	r1, r6
   10ff4:	e1a03004 	mov	r3, r4
   10ff8:	ebffffc3 	bl	10f0c <UsbReadStringLang>
   10ffc:	e2508000 	subs	r8, r0, #0
   11000:	1a000017 	bne	11064 <UsbReadString+0xd4>
   11004:	e2556001 	subs	r6, r5, #1
   11008:	e5d40000 	ldrb	r0, [r4]
   1100c:	0a00001d 	beq	11088 <UsbReadString+0xf8>
   11010:	e2400002 	sub	r0, r0, #2
   11014:	e1b000c0 	asrs	r0, r0, #1
   11018:	e1a01008 	mov	r1, r8
   1101c:	0a00000d 	beq	11058 <UsbReadString+0xc8>
   11020:	e3a0703f 	mov	r7, #63	; 0x3f
   11024:	ea000001 	b	11030 <UsbReadString+0xa0>
   11028:	e1510000 	cmp	r1, r0
   1102c:	0a000009 	beq	11058 <UsbReadString+0xc8>
   11030:	e084c081 	add	ip, r4, r1, lsl #1
   11034:	e5dc2002 	ldrb	r2, [ip, #2]
   11038:	e5dc3003 	ldrb	r3, [ip, #3]
   1103c:	e1822403 	orr	r2, r2, r3, lsl #8
   11040:	e3520c01 	cmp	r2, #256	; 0x100
   11044:	21a02007 	movcs	r2, r7
   11048:	e7c42001 	strb	r2, [r4, r1]
   1104c:	e2811001 	add	r1, r1, #1
   11050:	e1510006 	cmp	r1, r6
   11054:	1afffff3 	bne	11028 <UsbReadString+0x98>
   11058:	e1550001 	cmp	r5, r1
   1105c:	83a03000 	movhi	r3, #0
   11060:	87c43001 	strbhi	r3, [r4, r1]
   11064:	e1a00c08 	lsl	r0, r8, #24
   11068:	e1a00c40 	asr	r0, r0, #24
   1106c:	e28dd010 	add	sp, sp, #16
   11070:	e8bd41f0 	pop	{r4, r5, r6, r7, r8, lr}
   11074:	e12fff1e 	bx	lr
   11078:	e3a080fe 	mov	r8, #254	; 0xfe
   1107c:	eafffff8 	b	11064 <UsbReadString+0xd4>
   11080:	e3a080fc 	mov	r8, #252	; 0xfc
   11084:	eafffff6 	b	11064 <UsbReadString+0xd4>
   11088:	e1a01008 	mov	r1, r8
   1108c:	eafffff1 	b	11058 <UsbReadString+0xc8>

00011090 <UsbReadDeviceDescriptor>:
   11090:	e92d40f0 	push	{r4, r5, r6, r7, lr}
   11094:	e5d05004 	ldrb	r5, [r0, #4]
   11098:	e3550002 	cmp	r5, #2
   1109c:	e24dd014 	sub	sp, sp, #20
   110a0:	e1a04000 	mov	r4, r0
   110a4:	e3a03000 	mov	r3, #0
   110a8:	0a00002c 	beq	11160 <UsbReadDeviceDescriptor+0xd0>
   110ac:	e3550001 	cmp	r5, #1
   110b0:	0a00000f 	beq	110f4 <UsbReadDeviceDescriptor+0x64>
   110b4:	e3a01012 	mov	r1, #18
   110b8:	e280c014 	add	ip, r0, #20
   110bc:	e3a0e040 	mov	lr, #64	; 0x40
   110c0:	e5c0e01b 	strb	lr, [r0, #27]
   110c4:	e1a02003 	mov	r2, r3
   110c8:	e58d1004 	str	r1, [sp, #4]
   110cc:	e58d1008 	str	r1, [sp, #8]
   110d0:	e58dc000 	str	ip, [sp]
   110d4:	e58d300c 	str	r3, [sp, #12]
   110d8:	e3a01001 	mov	r1, #1
   110dc:	ebffff34 	bl	10db4 <UsbGetDescriptor>
   110e0:	e1a00c00 	lsl	r0, r0, #24
   110e4:	e1a00c40 	asr	r0, r0, #24
   110e8:	e28dd014 	add	sp, sp, #20
   110ec:	e8bd40f0 	pop	{r4, r5, r6, r7, lr}
   110f0:	e12fff1e 	bx	lr
   110f4:	e3a01040 	mov	r1, #64	; 0x40
   110f8:	e5c0101b 	strb	r1, [r0, #27]
   110fc:	e2807014 	add	r7, r0, #20
   11100:	e3a01008 	mov	r1, #8
   11104:	e3a06012 	mov	r6, #18
   11108:	e58d1008 	str	r1, [sp, #8]
   1110c:	e1a02003 	mov	r2, r3
   11110:	e58d7000 	str	r7, [sp]
   11114:	e58d6004 	str	r6, [sp, #4]
   11118:	e58d300c 	str	r3, [sp, #12]
   1111c:	e1a01005 	mov	r1, r5
   11120:	ebffff23 	bl	10db4 <UsbGetDescriptor>
   11124:	e3500000 	cmp	r0, #0
   11128:	1affffec 	bne	110e0 <UsbReadDeviceDescriptor+0x50>
   1112c:	e5943408 	ldr	r3, [r4, #1032]	; 0x408
   11130:	e1530006 	cmp	r3, r6
   11134:	0a000023 	beq	111c8 <UsbReadDeviceDescriptor+0x138>
   11138:	e1a02000 	mov	r2, r0
   1113c:	e58d000c 	str	r0, [sp, #12]
   11140:	e58d7000 	str	r7, [sp]
   11144:	e58d6004 	str	r6, [sp, #4]
   11148:	e58d6008 	str	r6, [sp, #8]
   1114c:	e1a00004 	mov	r0, r4
   11150:	e1a01005 	mov	r1, r5
   11154:	e1a03002 	mov	r3, r2
   11158:	ebffff15 	bl	10db4 <UsbGetDescriptor>
   1115c:	eaffffdf 	b	110e0 <UsbReadDeviceDescriptor+0x50>
   11160:	e3a01008 	mov	r1, #8
   11164:	e2806014 	add	r6, r0, #20
   11168:	e3a05012 	mov	r5, #18
   1116c:	e5c0101b 	strb	r1, [r0, #27]
   11170:	e1a02003 	mov	r2, r3
   11174:	e58d1008 	str	r1, [sp, #8]
   11178:	e58d6000 	str	r6, [sp]
   1117c:	e58d5004 	str	r5, [sp, #4]
   11180:	e58d300c 	str	r3, [sp, #12]
   11184:	e3a01001 	mov	r1, #1
   11188:	ebffff09 	bl	10db4 <UsbGetDescriptor>
   1118c:	e3500000 	cmp	r0, #0
   11190:	1affffd2 	bne	110e0 <UsbReadDeviceDescriptor+0x50>
   11194:	e5943408 	ldr	r3, [r4, #1032]	; 0x408
   11198:	e1530005 	cmp	r3, r5
   1119c:	0a000009 	beq	111c8 <UsbReadDeviceDescriptor+0x138>
   111a0:	e1a02000 	mov	r2, r0
   111a4:	e58d000c 	str	r0, [sp, #12]
   111a8:	e58d6000 	str	r6, [sp]
   111ac:	e58d5004 	str	r5, [sp, #4]
   111b0:	e58d5008 	str	r5, [sp, #8]
   111b4:	e1a00004 	mov	r0, r4
   111b8:	e3a01001 	mov	r1, #1
   111bc:	e1a03002 	mov	r3, r2
   111c0:	ebfffefb 	bl	10db4 <UsbGetDescriptor>
   111c4:	eaffffc5 	b	110e0 <UsbReadDeviceDescriptor+0x50>
   111c8:	e3a00000 	mov	r0, #0
   111cc:	eaffffc3 	b	110e0 <UsbReadDeviceDescriptor+0x50>

000111d0 <UsbSetAddress>:
   111d0:	e92d4070 	push	{r4, r5, r6, lr}
   111d4:	e5d03005 	ldrb	r3, [r0, #5]
   111d8:	e3530002 	cmp	r3, #2
   111dc:	e24dd018 	sub	sp, sp, #24
   111e0:	e1a04000 	mov	r4, r0
   111e4:	e1a05001 	mov	r5, r1
   111e8:	13a060fc 	movne	r6, #252	; 0xfc
   111ec:	1a000023 	bne	11280 <UsbSetAddress+0xb0>
   111f0:	e5d0301b 	ldrb	r3, [r0, #27]
   111f4:	e20330ff 	and	r3, r3, #255	; 0xff
   111f8:	e3a02000 	mov	r2, #0
   111fc:	e3530008 	cmp	r3, #8
   11200:	e58d200c 	str	r2, [sp, #12]
   11204:	9a000005 	bls	11220 <UsbSetAddress+0x50>
   11208:	e3530010 	cmp	r3, #16
   1120c:	93a02001 	movls	r2, #1
   11210:	9a000002 	bls	11220 <UsbSetAddress+0x50>
   11214:	e3530020 	cmp	r3, #32
   11218:	83a02003 	movhi	r2, #3
   1121c:	93a02002 	movls	r2, #2
   11220:	e5dd000c 	ldrb	r0, [sp, #12]
   11224:	e5d41004 	ldrb	r1, [r4, #4]
   11228:	e20000f0 	and	r0, r0, #240	; 0xf0
   1122c:	e1803002 	orr	r3, r0, r2
   11230:	e2011003 	and	r1, r1, #3
   11234:	e1833101 	orr	r3, r3, r1, lsl #2
   11238:	e5cd300c 	strb	r3, [sp, #12]
   1123c:	e28d3010 	add	r3, sp, #16
   11240:	e3a0c000 	mov	ip, #0
   11244:	e58d3000 	str	r3, [sp]
   11248:	e3a0300a 	mov	r3, #10
   1124c:	e58dc010 	str	ip, [sp, #16]
   11250:	e1a0200c 	mov	r2, ip
   11254:	e58d3004 	str	r3, [sp, #4]
   11258:	e58dc014 	str	ip, [sp, #20]
   1125c:	e1a0300c 	mov	r3, ip
   11260:	e1a00004 	mov	r0, r4
   11264:	e3a0c005 	mov	ip, #5
   11268:	e59d100c 	ldr	r1, [sp, #12]
   1126c:	e5cdc011 	strb	ip, [sp, #17]
   11270:	e1cd51b2 	strh	r5, [sp, #18]
   11274:	ebfffe90 	bl	10cbc <UsbControlMessage>
   11278:	e2506000 	subs	r6, r0, #0
   1127c:	0a000004 	beq	11294 <UsbSetAddress+0xc4>
   11280:	e1a00c06 	lsl	r0, r6, #24
   11284:	e1a00c40 	asr	r0, r0, #24
   11288:	e28dd018 	add	sp, sp, #24
   1128c:	e8bd4070 	pop	{r4, r5, r6, lr}
   11290:	e12fff1e 	bx	lr
   11294:	e59f0010 	ldr	r0, [pc, #16]	; 112ac <UsbSetAddress+0xdc>
   11298:	eb001529 	bl	16744 <MicroDelay>
   1129c:	e3a03003 	mov	r3, #3
   112a0:	e5845000 	str	r5, [r4]
   112a4:	e5c43005 	strb	r3, [r4, #5]
   112a8:	eafffff4 	b	11280 <UsbSetAddress+0xb0>
   112ac:	00002710 	.word	0x00002710

000112b0 <UsbSetConfiguration>:
   112b0:	e92d4030 	push	{r4, r5, lr}
   112b4:	e5d03005 	ldrb	r3, [r0, #5]
   112b8:	e3530003 	cmp	r3, #3
   112bc:	e1a04000 	mov	r4, r0
   112c0:	e24dd01c 	sub	sp, sp, #28
   112c4:	e1a05001 	mov	r5, r1
   112c8:	13a000fc 	movne	r0, #252	; 0xfc
   112cc:	1a000027 	bne	11370 <UsbSetConfiguration+0xc0>
   112d0:	e5d4301b 	ldrb	r3, [r4, #27]
   112d4:	e20330ff 	and	r3, r3, #255	; 0xff
   112d8:	e3a02000 	mov	r2, #0
   112dc:	e3530008 	cmp	r3, #8
   112e0:	e58d200c 	str	r2, [sp, #12]
   112e4:	9a000005 	bls	11300 <UsbSetConfiguration+0x50>
   112e8:	e3530010 	cmp	r3, #16
   112ec:	93a02001 	movls	r2, #1
   112f0:	9a000002 	bls	11300 <UsbSetConfiguration+0x50>
   112f4:	e3530020 	cmp	r3, #32
   112f8:	83a02003 	movhi	r2, #3
   112fc:	93a02002 	movls	r2, #2
   11300:	e5dd100c 	ldrb	r1, [sp, #12]
   11304:	e5d40004 	ldrb	r0, [r4, #4]
   11308:	e20110f0 	and	r1, r1, #240	; 0xf0
   1130c:	e1813002 	orr	r3, r1, r2
   11310:	e2000003 	and	r0, r0, #3
   11314:	e5d41000 	ldrb	r1, [r4]
   11318:	e1833100 	orr	r3, r3, r0, lsl #2
   1131c:	e5cd300c 	strb	r3, [sp, #12]
   11320:	e28d3010 	add	r3, sp, #16
   11324:	e3a0c000 	mov	ip, #0
   11328:	e5cd100d 	strb	r1, [sp, #13]
   1132c:	e58d3000 	str	r3, [sp]
   11330:	e3a0300a 	mov	r3, #10
   11334:	e58dc010 	str	ip, [sp, #16]
   11338:	e1a0200c 	mov	r2, ip
   1133c:	e58d3004 	str	r3, [sp, #4]
   11340:	e58dc014 	str	ip, [sp, #20]
   11344:	e1a0300c 	mov	r3, ip
   11348:	e1a00004 	mov	r0, r4
   1134c:	e3a0c009 	mov	ip, #9
   11350:	e59d100c 	ldr	r1, [sp, #12]
   11354:	e5cdc011 	strb	ip, [sp, #17]
   11358:	e1cd51b2 	strh	r5, [sp, #18]
   1135c:	ebfffe56 	bl	10cbc <UsbControlMessage>
   11360:	e3500000 	cmp	r0, #0
   11364:	03a03004 	moveq	r3, #4
   11368:	05c45006 	strbeq	r5, [r4, #6]
   1136c:	05c43005 	strbeq	r3, [r4, #5]
   11370:	e1a00c00 	lsl	r0, r0, #24
   11374:	e1a00c40 	asr	r0, r0, #24
   11378:	e28dd01c 	add	sp, sp, #28
   1137c:	e8bd4030 	pop	{r4, r5, lr}
   11380:	e12fff1e 	bx	lr

00011384 <UsbConfigure>:
   11384:	e92d4ff0 	push	{r4, r5, r6, r7, r8, r9, sl, fp, lr}
   11388:	e5d03005 	ldrb	r3, [r0, #5]
   1138c:	e3530003 	cmp	r3, #3
   11390:	e24dd014 	sub	sp, sp, #20
   11394:	e1a05000 	mov	r5, r0
   11398:	e1a04001 	mov	r4, r1
   1139c:	13a0a0fc 	movne	sl, #252	; 0xfc
   113a0:	1a00000a 	bne	113d0 <UsbConfigure+0x4c>
   113a4:	e3a0c009 	mov	ip, #9
   113a8:	e2802028 	add	r2, r0, #40	; 0x28
   113ac:	e3a03000 	mov	r3, #0
   113b0:	e88d1004 	stm	sp, {r2, ip}
   113b4:	e58dc008 	str	ip, [sp, #8]
   113b8:	e58d300c 	str	r3, [sp, #12]
   113bc:	e3a01002 	mov	r1, #2
   113c0:	e1a02004 	mov	r2, r4
   113c4:	ebfffe7a 	bl	10db4 <UsbGetDescriptor>
   113c8:	e250a000 	subs	sl, r0, #0
   113cc:	0a000004 	beq	113e4 <UsbConfigure+0x60>
   113d0:	e1a00c0a 	lsl	r0, sl, #24
   113d4:	e1a00c40 	asr	r0, r0, #24
   113d8:	e28dd014 	add	sp, sp, #20
   113dc:	e8bd4ff0 	pop	{r4, r5, r6, r7, r8, r9, sl, fp, lr}
   113e0:	e12fff1e 	bx	lr
   113e4:	e1d502ba 	ldrh	r0, [r5, #42]	; 0x2a
   113e8:	ebffe97f 	bl	b9ec <MemoryAllocate>
   113ec:	e2506000 	subs	r6, r0, #0
   113f0:	0a000055 	beq	1154c <UsbConfigure+0x1c8>
   113f4:	e1d512ba 	ldrh	r1, [r5, #42]	; 0x2a
   113f8:	e1d522ba 	ldrh	r2, [r5, #42]	; 0x2a
   113fc:	e1a0300a 	mov	r3, sl
   11400:	e98d0006 	stmib	sp, {r1, r2}
   11404:	e58da00c 	str	sl, [sp, #12]
   11408:	e58d6000 	str	r6, [sp]
   1140c:	e1a00005 	mov	r0, r5
   11410:	e3a01002 	mov	r1, #2
   11414:	e1a02004 	mov	r2, r4
   11418:	ebfffe65 	bl	10db4 <UsbGetDescriptor>
   1141c:	e250a000 	subs	sl, r0, #0
   11420:	1a00003a 	bne	11510 <UsbConfigure+0x18c>
   11424:	e5c54006 	strb	r4, [r5, #6]
   11428:	e5d5802d 	ldrb	r8, [r5, #45]	; 0x2d
   1142c:	e5d64000 	ldrb	r4, [r6]
   11430:	e1d532ba 	ldrh	r3, [r5, #42]	; 0x2a
   11434:	e1540003 	cmp	r4, r3
   11438:	e20880ff 	and	r8, r8, #255	; 0xff
   1143c:	e0864004 	add	r4, r6, r4
   11440:	33a09010 	movcc	r9, #16
   11444:	33a07008 	movcc	r7, #8
   11448:	3a00000a 	bcc	11478 <UsbConfigure+0xf4>
   1144c:	ea00002a 	b	114fc <UsbConfigure+0x178>
   11450:	e3520005 	cmp	r2, #5
   11454:	0a000010 	beq	1149c <UsbConfigure+0x118>
   11458:	e5d42000 	ldrb	r2, [r4]
   1145c:	e3520000 	cmp	r2, #0
   11460:	0a000025 	beq	114fc <UsbConfigure+0x178>
   11464:	e0844002 	add	r4, r4, r2
   11468:	e1d522ba 	ldrh	r2, [r5, #42]	; 0x2a
   1146c:	e0663004 	rsb	r3, r6, r4
   11470:	e1530002 	cmp	r3, r2
   11474:	2a000020 	bcs	114fc <UsbConfigure+0x178>
   11478:	e5d42001 	ldrb	r2, [r4, #1]
   1147c:	e3520004 	cmp	r2, #4
   11480:	1afffff2 	bne	11450 <UsbConfigure+0xcc>
   11484:	e5d4b002 	ldrb	fp, [r4, #2]
   11488:	e15b0007 	cmp	fp, r7
   1148c:	1a00000f 	bne	114d0 <UsbConfigure+0x14c>
   11490:	e5d42000 	ldrb	r2, [r4]
   11494:	e3a0a001 	mov	sl, #1
   11498:	eafffff1 	b	11464 <UsbConfigure+0xe0>
   1149c:	e35a0000 	cmp	sl, #0
   114a0:	1a000008 	bne	114c8 <UsbConfigure+0x144>
   114a4:	e3570008 	cmp	r7, #8
   114a8:	0a000006 	beq	114c8 <UsbConfigure+0x144>
   114ac:	e1a03187 	lsl	r3, r7, #3
   114b0:	e0832007 	add	r2, r3, r7
   114b4:	e0852002 	add	r2, r5, r2
   114b8:	e2822030 	add	r2, r2, #48	; 0x30
   114bc:	e5d22008 	ldrb	r2, [r2, #8]
   114c0:	e1520009 	cmp	r2, r9
   114c4:	8a000016 	bhi	11524 <UsbConfigure+0x1a0>
   114c8:	e5d42000 	ldrb	r2, [r4]
   114cc:	eaffffe4 	b	11464 <UsbConfigure+0xe0>
   114d0:	e08b018b 	add	r0, fp, fp, lsl #3
   114d4:	e0850000 	add	r0, r5, r0
   114d8:	e3a02009 	mov	r2, #9
   114dc:	e2800034 	add	r0, r0, #52	; 0x34
   114e0:	e1a01004 	mov	r1, r4
   114e4:	e3a0a000 	mov	sl, #0
   114e8:	ebffea99 	bl	bf54 <MemoryCopy>
   114ec:	e1a0700b 	mov	r7, fp
   114f0:	e5d42000 	ldrb	r2, [r4]
   114f4:	e1a0900a 	mov	r9, sl
   114f8:	eaffffd9 	b	11464 <UsbConfigure+0xe0>
   114fc:	e1a00005 	mov	r0, r5
   11500:	e1a01008 	mov	r1, r8
   11504:	ebffff69 	bl	112b0 <UsbSetConfiguration>
   11508:	e250a000 	subs	sl, r0, #0
   1150c:	0a000002 	beq	1151c <UsbConfigure+0x198>
   11510:	e1a00006 	mov	r0, r6
   11514:	ebffea48 	bl	be3c <MemoryDeallocate>
   11518:	eaffffac 	b	113d0 <UsbConfigure+0x4c>
   1151c:	e5856400 	str	r6, [r5, #1024]	; 0x400
   11520:	eaffffaa 	b	113d0 <UsbConfigure+0x4c>
   11524:	e0692189 	rsb	r2, r9, r9, lsl #3
   11528:	e0670003 	rsb	r0, r7, r3
   1152c:	e0820200 	add	r0, r2, r0, lsl #4
   11530:	e0850000 	add	r0, r5, r0
   11534:	e280007c 	add	r0, r0, #124	; 0x7c
   11538:	e1a01004 	mov	r1, r4
   1153c:	e3a02007 	mov	r2, #7
   11540:	ebffea83 	bl	bf54 <MemoryCopy>
   11544:	e2899001 	add	r9, r9, #1
   11548:	eaffffde 	b	114c8 <UsbConfigure+0x144>
   1154c:	e3a0a0f9 	mov	sl, #249	; 0xf9
   11550:	eaffff9e 	b	113d0 <UsbConfigure+0x4c>

00011554 <UsbGetDescription>:
   11554:	e5d03005 	ldrb	r3, [r0, #5]
   11558:	e3530000 	cmp	r3, #0
   1155c:	0a000012 	beq	115ac <UsbGetDescription+0x58>
   11560:	e3530001 	cmp	r3, #1
   11564:	0a00001b 	beq	115d8 <UsbGetDescription+0x84>
   11568:	e5d02018 	ldrb	r2, [r0, #24]
   1156c:	e20220ff 	and	r2, r2, #255	; 0xff
   11570:	e3520009 	cmp	r2, #9
   11574:	0a000029 	beq	11620 <UsbGetDescription+0xcc>
   11578:	e35200ff 	cmp	r2, #255	; 0xff
   1157c:	0a000035 	beq	11658 <UsbGetDescription+0x104>
   11580:	e3520000 	cmp	r2, #0
   11584:	1a000011 	bne	115d0 <UsbGetDescription+0x7c>
   11588:	e3530004 	cmp	r3, #4
   1158c:	0a000013 	beq	115e0 <UsbGetDescription+0x8c>
   11590:	e5d00018 	ldrb	r0, [r0, #24]
   11594:	e59f31f8 	ldr	r3, [pc, #504]	; 11794 <UsbGetDescription+0x240>
   11598:	e35000ff 	cmp	r0, #255	; 0xff
   1159c:	e2432030 	sub	r2, r3, #48	; 0x30
   115a0:	11a00003 	movne	r0, r3
   115a4:	01a00002 	moveq	r0, r2
   115a8:	e12fff1e 	bx	lr
   115ac:	e59f01e4 	ldr	r0, [pc, #484]	; 11798 <UsbGetDescription+0x244>
   115b0:	e12fff1e 	bx	lr
   115b4:	e3530007 	cmp	r3, #7
   115b8:	0a00005f 	beq	1173c <UsbGetDescription+0x1e8>
   115bc:	3a00005c 	bcc	11734 <UsbGetDescription+0x1e0>
   115c0:	e3530008 	cmp	r3, #8
   115c4:	0a000058 	beq	1172c <UsbGetDescription+0x1d8>
   115c8:	e3530009 	cmp	r3, #9
   115cc:	0a000013 	beq	11620 <UsbGetDescription+0xcc>
   115d0:	e59f01c4 	ldr	r0, [pc, #452]	; 1179c <UsbGetDescription+0x248>
   115d4:	e12fff1e 	bx	lr
   115d8:	e59f01c0 	ldr	r0, [pc, #448]	; 117a0 <UsbGetDescription+0x24c>
   115dc:	e12fff1e 	bx	lr
   115e0:	e5d03039 	ldrb	r3, [r0, #57]	; 0x39
   115e4:	e20330ff 	and	r3, r3, #255	; 0xff
   115e8:	e353000a 	cmp	r3, #10
   115ec:	0a000022 	beq	1167c <UsbGetDescription+0x128>
   115f0:	8a000027 	bhi	11694 <UsbGetDescription+0x140>
   115f4:	e3530005 	cmp	r3, #5
   115f8:	0a00003e 	beq	116f8 <UsbGetDescription+0x1a4>
   115fc:	8affffec 	bhi	115b4 <UsbGetDescription+0x60>
   11600:	e3530002 	cmp	r3, #2
   11604:	0a000037 	beq	116e8 <UsbGetDescription+0x194>
   11608:	e3530003 	cmp	r3, #3
   1160c:	0a00003b 	beq	11700 <UsbGetDescription+0x1ac>
   11610:	e3530001 	cmp	r3, #1
   11614:	1affffed 	bne	115d0 <UsbGetDescription+0x7c>
   11618:	e59f0184 	ldr	r0, [pc, #388]	; 117a4 <UsbGetDescription+0x250>
   1161c:	e12fff1e 	bx	lr
   11620:	e1d031b6 	ldrh	r3, [r0, #22]
   11624:	e3530e21 	cmp	r3, #528	; 0x210
   11628:	0a000017 	beq	1168c <UsbGetDescription+0x138>
   1162c:	e1d031b6 	ldrh	r3, [r0, #22]
   11630:	e3530c02 	cmp	r3, #512	; 0x200
   11634:	0a000020 	beq	116bc <UsbGetDescription+0x168>
   11638:	e1d031b6 	ldrh	r3, [r0, #22]
   1163c:	e3530e11 	cmp	r3, #272	; 0x110
   11640:	0a00001f 	beq	116c4 <UsbGetDescription+0x170>
   11644:	e1d031b6 	ldrh	r3, [r0, #22]
   11648:	e3530c01 	cmp	r3, #256	; 0x100
   1164c:	0a00000c 	beq	11684 <UsbGetDescription+0x130>
   11650:	e59f0150 	ldr	r0, [pc, #336]	; 117a8 <UsbGetDescription+0x254>
   11654:	e12fff1e 	bx	lr
   11658:	e1d011bc 	ldrh	r1, [r0, #28]
   1165c:	e59f2148 	ldr	r2, [pc, #328]	; 117ac <UsbGetDescription+0x258>
   11660:	e1510002 	cmp	r1, r2
   11664:	1affffc7 	bne	11588 <UsbGetDescription+0x34>
   11668:	e1d021be 	ldrh	r2, [r0, #30]
   1166c:	e3520b3b 	cmp	r2, #60416	; 0xec00
   11670:	1affffc4 	bne	11588 <UsbGetDescription+0x34>
   11674:	e59f0134 	ldr	r0, [pc, #308]	; 117b0 <UsbGetDescription+0x25c>
   11678:	e12fff1e 	bx	lr
   1167c:	e59f0130 	ldr	r0, [pc, #304]	; 117b4 <UsbGetDescription+0x260>
   11680:	e12fff1e 	bx	lr
   11684:	e59f012c 	ldr	r0, [pc, #300]	; 117b8 <UsbGetDescription+0x264>
   11688:	e12fff1e 	bx	lr
   1168c:	e59f0128 	ldr	r0, [pc, #296]	; 117bc <UsbGetDescription+0x268>
   11690:	e12fff1e 	bx	lr
   11694:	e3530010 	cmp	r3, #16
   11698:	0a000021 	beq	11724 <UsbGetDescription+0x1d0>
   1169c:	8a00000a 	bhi	116cc <UsbGetDescription+0x178>
   116a0:	e353000d 	cmp	r3, #13
   116a4:	0a00001c 	beq	1171c <UsbGetDescription+0x1c8>
   116a8:	8a00002d 	bhi	11764 <UsbGetDescription+0x210>
   116ac:	e353000b 	cmp	r3, #11
   116b0:	1affffc6 	bne	115d0 <UsbGetDescription+0x7c>
   116b4:	e59f0104 	ldr	r0, [pc, #260]	; 117c0 <UsbGetDescription+0x26c>
   116b8:	e12fff1e 	bx	lr
   116bc:	e59f0100 	ldr	r0, [pc, #256]	; 117c4 <UsbGetDescription+0x270>
   116c0:	e12fff1e 	bx	lr
   116c4:	e59f00fc 	ldr	r0, [pc, #252]	; 117c8 <UsbGetDescription+0x274>
   116c8:	e12fff1e 	bx	lr
   116cc:	e35300e0 	cmp	r3, #224	; 0xe0
   116d0:	0a000006 	beq	116f0 <UsbGetDescription+0x19c>
   116d4:	8a00001a 	bhi	11744 <UsbGetDescription+0x1f0>
   116d8:	e35300dc 	cmp	r3, #220	; 0xdc
   116dc:	1affffbb 	bne	115d0 <UsbGetDescription+0x7c>
   116e0:	e59f00e4 	ldr	r0, [pc, #228]	; 117cc <UsbGetDescription+0x278>
   116e4:	e12fff1e 	bx	lr
   116e8:	e59f00e0 	ldr	r0, [pc, #224]	; 117d0 <UsbGetDescription+0x27c>
   116ec:	e12fff1e 	bx	lr
   116f0:	e59f00dc 	ldr	r0, [pc, #220]	; 117d4 <UsbGetDescription+0x280>
   116f4:	e12fff1e 	bx	lr
   116f8:	e59f00d8 	ldr	r0, [pc, #216]	; 117d8 <UsbGetDescription+0x284>
   116fc:	e12fff1e 	bx	lr
   11700:	e5d0303b 	ldrb	r3, [r0, #59]	; 0x3b
   11704:	e2433001 	sub	r3, r3, #1
   11708:	e20330ff 	and	r3, r3, #255	; 0xff
   1170c:	e3530001 	cmp	r3, #1
   11710:	9a00001b 	bls	11784 <UsbGetDescription+0x230>
   11714:	e59f00c0 	ldr	r0, [pc, #192]	; 117dc <UsbGetDescription+0x288>
   11718:	e12fff1e 	bx	lr
   1171c:	e59f00bc 	ldr	r0, [pc, #188]	; 117e0 <UsbGetDescription+0x28c>
   11720:	e12fff1e 	bx	lr
   11724:	e59f00b8 	ldr	r0, [pc, #184]	; 117e4 <UsbGetDescription+0x290>
   11728:	e12fff1e 	bx	lr
   1172c:	e59f00b4 	ldr	r0, [pc, #180]	; 117e8 <UsbGetDescription+0x294>
   11730:	e12fff1e 	bx	lr
   11734:	e59f00b0 	ldr	r0, [pc, #176]	; 117ec <UsbGetDescription+0x298>
   11738:	e12fff1e 	bx	lr
   1173c:	e59f00ac 	ldr	r0, [pc, #172]	; 117f0 <UsbGetDescription+0x29c>
   11740:	e12fff1e 	bx	lr
   11744:	e35300ef 	cmp	r3, #239	; 0xef
   11748:	0a000003 	beq	1175c <UsbGetDescription+0x208>
   1174c:	e35300ff 	cmp	r3, #255	; 0xff
   11750:	1affff9e 	bne	115d0 <UsbGetDescription+0x7c>
   11754:	e59f0098 	ldr	r0, [pc, #152]	; 117f4 <UsbGetDescription+0x2a0>
   11758:	e12fff1e 	bx	lr
   1175c:	e59f0094 	ldr	r0, [pc, #148]	; 117f8 <UsbGetDescription+0x2a4>
   11760:	e12fff1e 	bx	lr
   11764:	e353000e 	cmp	r3, #14
   11768:	0a000003 	beq	1177c <UsbGetDescription+0x228>
   1176c:	e353000f 	cmp	r3, #15
   11770:	1affff96 	bne	115d0 <UsbGetDescription+0x7c>
   11774:	e59f0080 	ldr	r0, [pc, #128]	; 117fc <UsbGetDescription+0x2a8>
   11778:	e12fff1e 	bx	lr
   1177c:	e59f007c 	ldr	r0, [pc, #124]	; 11800 <UsbGetDescription+0x2ac>
   11780:	e12fff1e 	bx	lr
   11784:	e59f200c 	ldr	r2, [pc, #12]	; 11798 <UsbGetDescription+0x244>
   11788:	e0823103 	add	r3, r2, r3, lsl #2
   1178c:	e5930224 	ldr	r0, [r3, #548]	; 0x224
   11790:	e12fff1e 	bx	lr
   11794:	00011e24 	.word	0x00011e24
   11798:	00011ccc 	.word	0x00011ccc
   1179c:	00011d80 	.word	0x00011d80
   117a0:	00011ce4 	.word	0x00011ce4
   117a4:	00011d5c 	.word	0x00011d5c
   117a8:	00011d40 	.word	0x00011d40
   117ac:	00000424 	.word	0x00000424
   117b0:	00011d4c 	.word	0x00011d4c
   117b4:	00011e3c 	.word	0x00011e3c
   117b8:	00011d30 	.word	0x00011d30
   117bc:	00011d00 	.word	0x00011d00
   117c0:	00011e54 	.word	0x00011e54
   117c4:	00011d10 	.word	0x00011d10
   117c8:	00011d20 	.word	0x00011d20
   117cc:	00011ebc 	.word	0x00011ebc
   117d0:	00011d70 	.word	0x00011d70
   117d4:	00011ed4 	.word	0x00011ed4
   117d8:	00011d9c 	.word	0x00011d9c
   117dc:	00011d90 	.word	0x00011d90
   117e0:	00011e64 	.word	0x00011e64
   117e4:	00011eac 	.word	0x00011eac
   117e8:	00011dd8 	.word	0x00011dd8
   117ec:	00011db4 	.word	0x00011db4
   117f0:	00011dc8 	.word	0x00011dc8
   117f4:	00011df4 	.word	0x00011df4
   117f8:	00011e08 	.word	0x00011e08
   117fc:	00011e94 	.word	0x00011e94
   11800:	00011e80 	.word	0x00011e80

00011804 <UsbScanDevice>:
   11804:	e92d40f8 	push	{r3, r4, r5, r6, r7, lr}
   11808:	e3a03000 	mov	r3, #0
   1180c:	e5906000 	ldr	r6, [r0]
   11810:	e5803000 	str	r3, [r0]
   11814:	e1a04000 	mov	r4, r0
   11818:	ebfffe1c 	bl	11090 <UsbReadDeviceDescriptor>
   1181c:	e2505000 	subs	r5, r0, #0
   11820:	120660ff 	andne	r6, r6, #255	; 0xff
   11824:	15846000 	strne	r6, [r4]
   11828:	1a000020 	bne	118b0 <UsbScanDevice+0xac>
   1182c:	e59403fc 	ldr	r0, [r4, #1020]	; 0x3fc
   11830:	e3a03002 	mov	r3, #2
   11834:	e3500000 	cmp	r0, #0
   11838:	e5c43005 	strb	r3, [r4, #5]
   1183c:	0a000014 	beq	11894 <UsbScanDevice+0x90>
   11840:	e5d41007 	ldrb	r1, [r4, #7]
   11844:	e5903404 	ldr	r3, [r0, #1028]	; 0x404
   11848:	e281200e 	add	r2, r1, #14
   1184c:	e0833102 	add	r3, r3, r2, lsl #2
   11850:	e5d3c004 	ldrb	ip, [r3, #4]
   11854:	e5d37005 	ldrb	r7, [r3, #5]
   11858:	e5d32006 	ldrb	r2, [r3, #6]
   1185c:	e18c7407 	orr	r7, ip, r7, lsl #8
   11860:	e5d33007 	ldrb	r3, [r3, #7]
   11864:	e1877802 	orr	r7, r7, r2, lsl #16
   11868:	e1877c03 	orr	r7, r7, r3, lsl #24
   1186c:	e1570004 	cmp	r7, r4
   11870:	120660ff 	andne	r6, r6, #255	; 0xff
   11874:	15846000 	strne	r6, [r4]
   11878:	13a050fe 	movne	r5, #254	; 0xfe
   1187c:	1a00000b 	bne	118b0 <UsbScanDevice+0xac>
   11880:	eb000a1c 	bl	140f8 <HubPortReset>
   11884:	e2505000 	subs	r5, r0, #0
   11888:	120660ff 	andne	r6, r6, #255	; 0xff
   1188c:	15876000 	strne	r6, [r7]
   11890:	1a000006 	bne	118b0 <UsbScanDevice+0xac>
   11894:	e20660ff 	and	r6, r6, #255	; 0xff
   11898:	e1a00004 	mov	r0, r4
   1189c:	e1a01006 	mov	r1, r6
   118a0:	ebfffe4a 	bl	111d0 <UsbSetAddress>
   118a4:	e2505000 	subs	r5, r0, #0
   118a8:	e5846000 	str	r6, [r4]
   118ac:	0a000003 	beq	118c0 <UsbScanDevice+0xbc>
   118b0:	e1a00c05 	lsl	r0, r5, #24
   118b4:	e1a00c40 	asr	r0, r0, #24
   118b8:	e8bd40f8 	pop	{r3, r4, r5, r6, r7, lr}
   118bc:	e12fff1e 	bx	lr
   118c0:	e1a00004 	mov	r0, r4
   118c4:	ebfffdf1 	bl	11090 <UsbReadDeviceDescriptor>
   118c8:	e2505000 	subs	r5, r0, #0
   118cc:	1afffff7 	bne	118b0 <UsbScanDevice+0xac>
   118d0:	e5d43023 	ldrb	r3, [r4, #35]	; 0x23
   118d4:	e3530000 	cmp	r3, #0
   118d8:	1a000027 	bne	1197c <UsbScanDevice+0x178>
   118dc:	e5d43022 	ldrb	r3, [r4, #34]	; 0x22
   118e0:	e3530000 	cmp	r3, #0
   118e4:	1a00003b 	bne	119d8 <UsbScanDevice+0x1d4>
   118e8:	e5d43024 	ldrb	r3, [r4, #36]	; 0x24
   118ec:	e3530000 	cmp	r3, #0
   118f0:	0a000003 	beq	11904 <UsbScanDevice+0x100>
   118f4:	e3a00c01 	mov	r0, #256	; 0x100
   118f8:	ebffe83b 	bl	b9ec <MemoryAllocate>
   118fc:	e2506000 	subs	r6, r0, #0
   11900:	1a00002c 	bne	119b8 <UsbScanDevice+0x1b4>
   11904:	e1a00004 	mov	r0, r4
   11908:	e3a01000 	mov	r1, #0
   1190c:	ebfffe9c 	bl	11384 <UsbConfigure>
   11910:	e3500000 	cmp	r0, #0
   11914:	1affffe5 	bne	118b0 <UsbScanDevice+0xac>
   11918:	e5d4302e 	ldrb	r3, [r4, #46]	; 0x2e
   1191c:	e3530000 	cmp	r3, #0
   11920:	0a00000a 	beq	11950 <UsbScanDevice+0x14c>
   11924:	e3a00c01 	mov	r0, #256	; 0x100
   11928:	ebffe82f 	bl	b9ec <MemoryAllocate>
   1192c:	e2506000 	subs	r6, r0, #0
   11930:	0a000006 	beq	11950 <UsbScanDevice+0x14c>
   11934:	e5d4102e 	ldrb	r1, [r4, #46]	; 0x2e
   11938:	e1a00004 	mov	r0, r4
   1193c:	e1a02006 	mov	r2, r6
   11940:	e3a03c01 	mov	r3, #256	; 0x100
   11944:	ebfffd91 	bl	10f90 <UsbReadString>
   11948:	e1a00006 	mov	r0, r6
   1194c:	ebffe93a 	bl	be3c <MemoryDeallocate>
   11950:	e5d43039 	ldrb	r3, [r4, #57]	; 0x39
   11954:	e3530009 	cmp	r3, #9
   11958:	0a00002b 	beq	11a0c <UsbScanDevice+0x208>
   1195c:	e5d43039 	ldrb	r3, [r4, #57]	; 0x39
   11960:	e3530003 	cmp	r3, #3
   11964:	1affffd1 	bne	118b0 <UsbScanDevice+0xac>
   11968:	e1a00004 	mov	r0, r4
   1196c:	e3a01000 	mov	r1, #0
   11970:	eb000782 	bl	13780 <HidScan>
   11974:	e3a05000 	mov	r5, #0
   11978:	eaffffcc 	b	118b0 <UsbScanDevice+0xac>
   1197c:	e3a00c01 	mov	r0, #256	; 0x100
   11980:	ebffe819 	bl	b9ec <MemoryAllocate>
   11984:	e2506000 	subs	r6, r0, #0
   11988:	0affffd3 	beq	118dc <UsbScanDevice+0xd8>
   1198c:	e3a03c01 	mov	r3, #256	; 0x100
   11990:	e5d41023 	ldrb	r1, [r4, #35]	; 0x23
   11994:	e1a00004 	mov	r0, r4
   11998:	e1a02006 	mov	r2, r6
   1199c:	ebfffd7b 	bl	10f90 <UsbReadString>
   119a0:	e5d43022 	ldrb	r3, [r4, #34]	; 0x22
   119a4:	e3530000 	cmp	r3, #0
   119a8:	1a00000e 	bne	119e8 <UsbScanDevice+0x1e4>
   119ac:	e5d43024 	ldrb	r3, [r4, #36]	; 0x24
   119b0:	e3530000 	cmp	r3, #0
   119b4:	0a000004 	beq	119cc <UsbScanDevice+0x1c8>
   119b8:	e5d41024 	ldrb	r1, [r4, #36]	; 0x24
   119bc:	e1a00004 	mov	r0, r4
   119c0:	e1a02006 	mov	r2, r6
   119c4:	e3a03c01 	mov	r3, #256	; 0x100
   119c8:	ebfffd70 	bl	10f90 <UsbReadString>
   119cc:	e1a00006 	mov	r0, r6
   119d0:	ebffe919 	bl	be3c <MemoryDeallocate>
   119d4:	eaffffca 	b	11904 <UsbScanDevice+0x100>
   119d8:	e3a00c01 	mov	r0, #256	; 0x100
   119dc:	ebffe802 	bl	b9ec <MemoryAllocate>
   119e0:	e2506000 	subs	r6, r0, #0
   119e4:	0affffbf 	beq	118e8 <UsbScanDevice+0xe4>
   119e8:	e3a03c01 	mov	r3, #256	; 0x100
   119ec:	e5d41022 	ldrb	r1, [r4, #34]	; 0x22
   119f0:	e1a00004 	mov	r0, r4
   119f4:	e1a02006 	mov	r2, r6
   119f8:	ebfffd64 	bl	10f90 <UsbReadString>
   119fc:	e5d43024 	ldrb	r3, [r4, #36]	; 0x24
   11a00:	e3530000 	cmp	r3, #0
   11a04:	1affffeb 	bne	119b8 <UsbScanDevice+0x1b4>
   11a08:	eaffffef 	b	119cc <UsbScanDevice+0x1c8>
   11a0c:	e5d4303a 	ldrb	r3, [r4, #58]	; 0x3a
   11a10:	e3530001 	cmp	r3, #1
   11a14:	8affffd0 	bhi	1195c <UsbScanDevice+0x158>
   11a18:	e1a00004 	mov	r0, r4
   11a1c:	e3a01000 	mov	r1, #0
   11a20:	eb000aea 	bl	145d0 <HubScan>
   11a24:	e3a05000 	mov	r5, #0
   11a28:	eaffffa0 	b	118b0 <UsbScanDevice+0xac>

00011a2c <UsbAllocateDevice>:
   11a2c:	e92d4038 	push	{r3, r4, r5, lr}
   11a30:	e1a04000 	mov	r4, r0
   11a34:	e59f00a4 	ldr	r0, [pc, #164]	; 11ae0 <UsbAllocateDevice+0xb4>
   11a38:	ebffe7eb 	bl	b9ec <MemoryAllocate>
   11a3c:	e3500000 	cmp	r0, #0
   11a40:	e5840000 	str	r0, [r4]
   11a44:	0a000023 	beq	11ad8 <UsbAllocateDevice+0xac>
   11a48:	e59f5094 	ldr	r5, [pc, #148]	; 11ae4 <UsbAllocateDevice+0xb8>
   11a4c:	e3a03000 	mov	r3, #0
   11a50:	e5951000 	ldr	r1, [r5]
   11a54:	e3a0c001 	mov	ip, #1
   11a58:	ea000002 	b	11a68 <UsbAllocateDevice+0x3c>
   11a5c:	e2833001 	add	r3, r3, #1
   11a60:	e3530020 	cmp	r3, #32
   11a64:	0a000006 	beq	11a84 <UsbAllocateDevice+0x58>
   11a68:	e1a0231c 	lsl	r2, ip, r3
   11a6c:	e1120001 	tst	r2, r1
   11a70:	1afffff9 	bne	11a5c <UsbAllocateDevice+0x30>
   11a74:	e1812002 	orr	r2, r1, r2
   11a78:	e2833001 	add	r3, r3, #1
   11a7c:	e5852000 	str	r2, [r5]
   11a80:	e5803000 	str	r3, [r0]
   11a84:	e3a03000 	mov	r3, #0
   11a88:	e5c03007 	strb	r3, [r0, #7]
   11a8c:	e5942000 	ldr	r2, [r4]
   11a90:	e58233fc 	str	r3, [r2, #1020]	; 0x3fc
   11a94:	e5942000 	ldr	r2, [r4]
   11a98:	e5823404 	str	r3, [r2, #1028]	; 0x404
   11a9c:	e5942000 	ldr	r2, [r4]
   11aa0:	e5823400 	str	r3, [r2, #1024]	; 0x400
   11aa4:	e5942000 	ldr	r2, [r4]
   11aa8:	e3e01000 	mvn	r1, #0
   11aac:	e5803008 	str	r3, [r0, #8]
   11ab0:	e5c21006 	strb	r1, [r2, #6]
   11ab4:	e5942000 	ldr	r2, [r4]
   11ab8:	e5823010 	str	r3, [r2, #16]
   11abc:	e5942000 	ldr	r2, [r4]
   11ac0:	e5c03005 	strb	r3, [r0, #5]
   11ac4:	e582300c 	str	r3, [r2, #12]
   11ac8:	e1a00c03 	lsl	r0, r3, #24
   11acc:	e1a00c40 	asr	r0, r0, #24
   11ad0:	e8bd4038 	pop	{r3, r4, r5, lr}
   11ad4:	e12fff1e 	bx	lr
   11ad8:	e3a030f9 	mov	r3, #249	; 0xf9
   11adc:	eafffff9 	b	11ac8 <UsbAllocateDevice+0x9c>
   11ae0:	0000040c 	.word	0x0000040c
   11ae4:	00011f58 	.word	0x00011f58

00011ae8 <UsbDeallocateDevice>:
   11ae8:	e590300c 	ldr	r3, [r0, #12]
   11aec:	e3530000 	cmp	r3, #0
   11af0:	e92d4010 	push	{r4, lr}
   11af4:	e1a04000 	mov	r4, r0
   11af8:	11a0e00f 	movne	lr, pc
   11afc:	112fff13 	bxne	r3
   11b00:	e5943010 	ldr	r3, [r4, #16]
   11b04:	e3530000 	cmp	r3, #0
   11b08:	11a00004 	movne	r0, r4
   11b0c:	11a0e00f 	movne	lr, pc
   11b10:	112fff13 	bxne	r3
   11b14:	e59433fc 	ldr	r3, [r4, #1020]	; 0x3fc
   11b18:	e3530000 	cmp	r3, #0
   11b1c:	0a000006 	beq	11b3c <UsbDeallocateDevice+0x54>
   11b20:	e5933404 	ldr	r3, [r3, #1028]	; 0x404
   11b24:	e3530000 	cmp	r3, #0
   11b28:	0a000003 	beq	11b3c <UsbDeallocateDevice+0x54>
   11b2c:	e5931000 	ldr	r1, [r3]
   11b30:	e59f20c0 	ldr	r2, [pc, #192]	; 11bf8 <UsbDeallocateDevice+0x110>
   11b34:	e1510002 	cmp	r1, r2
   11b38:	0a000014 	beq	11b90 <UsbDeallocateDevice+0xa8>
   11b3c:	e5d43005 	ldrb	r3, [r4, #5]
   11b40:	e2433003 	sub	r3, r3, #3
   11b44:	e3530001 	cmp	r3, #1
   11b48:	9a000006 	bls	11b68 <UsbDeallocateDevice+0x80>
   11b4c:	e5940400 	ldr	r0, [r4, #1024]	; 0x400
   11b50:	e3500000 	cmp	r0, #0
   11b54:	1bffe8b8 	blne	be3c <MemoryDeallocate>
   11b58:	e1a00004 	mov	r0, r4
   11b5c:	ebffe8b6 	bl	be3c <MemoryDeallocate>
   11b60:	e8bd4010 	pop	{r4, lr}
   11b64:	e12fff1e 	bx	lr
   11b68:	e5941000 	ldr	r1, [r4]
   11b6c:	e59f3088 	ldr	r3, [pc, #136]	; 11bfc <UsbDeallocateDevice+0x114>
   11b70:	e2411001 	sub	r1, r1, #1
   11b74:	e1a022a1 	lsr	r2, r1, #5
   11b78:	e7930102 	ldr	r0, [r3, r2, lsl #2]
   11b7c:	e201101f 	and	r1, r1, #31
   11b80:	e3a0c001 	mov	ip, #1
   11b84:	e1c0111c 	bic	r1, r0, ip, lsl r1
   11b88:	e7831102 	str	r1, [r3, r2, lsl #2]
   11b8c:	eaffffee 	b	11b4c <UsbDeallocateDevice+0x64>
   11b90:	e5d32010 	ldrb	r2, [r3, #16]
   11b94:	e5d31011 	ldrb	r1, [r3, #17]
   11b98:	e5d3c012 	ldrb	ip, [r3, #18]
   11b9c:	e1821401 	orr	r1, r2, r1, lsl #8
   11ba0:	e5d30013 	ldrb	r0, [r3, #19]
   11ba4:	e5d42007 	ldrb	r2, [r4, #7]
   11ba8:	e181180c 	orr	r1, r1, ip, lsl #16
   11bac:	e1811c00 	orr	r1, r1, r0, lsl #24
   11bb0:	e1510002 	cmp	r1, r2
   11bb4:	9affffe0 	bls	11b3c <UsbDeallocateDevice+0x54>
   11bb8:	e282200e 	add	r2, r2, #14
   11bbc:	e0833102 	add	r3, r3, r2, lsl #2
   11bc0:	e5d31005 	ldrb	r1, [r3, #5]
   11bc4:	e5d32004 	ldrb	r2, [r3, #4]
   11bc8:	e5d30006 	ldrb	r0, [r3, #6]
   11bcc:	e1822401 	orr	r2, r2, r1, lsl #8
   11bd0:	e5d31007 	ldrb	r1, [r3, #7]
   11bd4:	e1822800 	orr	r2, r2, r0, lsl #16
   11bd8:	e1822c01 	orr	r2, r2, r1, lsl #24
   11bdc:	e1540002 	cmp	r4, r2
   11be0:	03a02000 	moveq	r2, #0
   11be4:	05c32004 	strbeq	r2, [r3, #4]
   11be8:	05c32005 	strbeq	r2, [r3, #5]
   11bec:	05c32006 	strbeq	r2, [r3, #6]
   11bf0:	05c32007 	strbeq	r2, [r3, #7]
   11bf4:	eaffffd0 	b	11b3c <UsbDeallocateDevice+0x54>
   11bf8:	48554230 	.word	0x48554230
   11bfc:	00011f58 	.word	0x00011f58

00011c00 <UsbScanRootHub>:
   11c00:	e59f3044 	ldr	r3, [pc, #68]	; 11c4c <UsbScanRootHub+0x4c>
   11c04:	e5930000 	ldr	r0, [r3]
   11c08:	e3500000 	cmp	r0, #0
   11c0c:	e92d4010 	push	{r4, lr}
   11c10:	1bffe889 	blne	be3c <MemoryDeallocate>
   11c14:	e59f4030 	ldr	r4, [pc, #48]	; 11c4c <UsbScanRootHub+0x4c>
   11c18:	e1a00004 	mov	r0, r4
   11c1c:	ebffff82 	bl	11a2c <UsbAllocateDevice>
   11c20:	e3500000 	cmp	r0, #0
   11c24:	0a000003 	beq	11c38 <UsbScanRootHub+0x38>
   11c28:	e1a00c00 	lsl	r0, r0, #24
   11c2c:	e1a00c40 	asr	r0, r0, #24
   11c30:	e8bd4010 	pop	{r4, lr}
   11c34:	e12fff1e 	bx	lr
   11c38:	e5940000 	ldr	r0, [r4]
   11c3c:	e3a03001 	mov	r3, #1
   11c40:	e5c03005 	strb	r3, [r0, #5]
   11c44:	e8bd4010 	pop	{r4, lr}
   11c48:	eafffeed 	b	11804 <UsbScanDevice>
   11c4c:	00011cc8 	.word	0x00011cc8

00011c50 <UsbInitialise>:
   11c50:	e92d4010 	push	{r4, lr}
   11c54:	eb000e9f 	bl	156d8 <HcdInitialise>
   11c58:	e2504000 	subs	r4, r0, #0
   11c5c:	0a000003 	beq	11c70 <UsbInitialise+0x20>
   11c60:	e1a00c04 	lsl	r0, r4, #24
   11c64:	e1a00c40 	asr	r0, r0, #24
   11c68:	e8bd4010 	pop	{r4, lr}
   11c6c:	e12fff1e 	bx	lr
   11c70:	eb000efd 	bl	1586c <HcdStart>
   11c74:	e2504000 	subs	r4, r0, #0
   11c78:	1a000003 	bne	11c8c <UsbInitialise+0x3c>
   11c7c:	ebffffdf 	bl	11c00 <UsbScanRootHub>
   11c80:	e2504000 	subs	r4, r0, #0
   11c84:	0a000002 	beq	11c94 <UsbInitialise+0x44>
   11c88:	eb00104e 	bl	15dc8 <HcdStop>
   11c8c:	eb001056 	bl	15dec <HcdDeinitialise>
   11c90:	eafffff2 	b	11c60 <UsbInitialise+0x10>
   11c94:	e59f300c 	ldr	r3, [pc, #12]	; 11ca8 <UsbInitialise+0x58>
   11c98:	e1a01004 	mov	r1, r4
   11c9c:	e5930000 	ldr	r0, [r3]
   11ca0:	ebfffbd2 	bl	10bf0 <UsbPrintDeviceTree>
   11ca4:	eaffffed 	b	11c60 <UsbInitialise+0x10>
   11ca8:	00011cc8 	.word	0x00011cc8

00011cac <UsbCheckForChange>:
   11cac:	e92d4008 	push	{r3, lr}
   11cb0:	e59f300c 	ldr	r3, [pc, #12]	; 11cc4 <UsbCheckForChange+0x18>
   11cb4:	e5930000 	ldr	r0, [r3]
   11cb8:	eb000a12 	bl	14508 <HubRecursiveCheck>
   11cbc:	e8bd4008 	pop	{r3, lr}
   11cc0:	e12fff1e 	bx	lr
   11cc4:	00011cc8 	.word	0x00011cc8

00011cc8 <RootHub>:
   11cc8:	00000000 2077654e 69766544 28206563     ....New Device (
   11cd8:	20746f4e 64616552 00002979 6e6b6e55     Not Ready)..Unkn
   11ce8:	206e776f 69766544 28206563 20746f4e     own Device (Not 
   11cf8:	64616552 00002979 20425355 20312e32     Ready)..USB 2.1 
   11d08:	00627548 00000000 20425355 20302e32     Hub.....USB 2.0 
   11d18:	00627548 00000000 20425355 20312e31     Hub.....USB 1.1 
   11d28:	00627548 00000000 20425355 20302e31     Hub.....USB 1.0 
   11d38:	00627548 00000000 20425355 00627548     Hub.....USB Hub.
   11d48:	00000000 43534d53 4e414c20 32313539     ....SMSC LAN9512
   11d58:	00000000 20425355 69647541 6544206f     ....USB Audio De
   11d68:	65636976 00000000 20425355 20434443     vice....USB CDC 
   11d78:	69766544 00006563 656e6547 20636972     Device..Generic 
   11d88:	69766544 00006563 20425355 00444948     Device..USB HID.
   11d98:	00000000 20425355 73796850 6c616369     ....USB Physical
   11da8:	76654420 00656369 00000000 20425355      Device.....USB 
   11db8:	67616d49 20676e69 69766544 00006563     Imaging Device..
   11dc8:	20425355 6e697250 00726574 00000000     USB Printer.....
   11dd8:	20425355 7373614d 6f745320 65676172     USB Mass Storage
   11de8:	76654420 00656369 00000000 646e6556      Device.....Vend
   11df8:	5320726f 69636570 00636966 00000000     or Specific.....
   11e08:	20425355 6373694d 616c6c65 756f656e     USB Miscellaneou
   11e18:	65442073 65636976 00000000 6f636e55     s Device....Unco
   11e28:	6769666e 64657275 76654420 00656369     nfigured Device.
   11e38:	00000000 20425355 2d434443 61746144     ....USB CDC-Data
   11e48:	76654420 00656369 00000000 20425355      Device.....USB 
   11e58:	72616d53 61432074 00006472 20425355     Smart Card..USB 
   11e68:	746e6f43 20746e65 75636553 20797469     Content Secuity 
   11e78:	69766544 00006563 20425355 65646956     Device..USB Vide
   11e88:	6544206f 65636976 00000000 20425355     o Device....USB 
   11e98:	6c616548 61636874 44206572 63697665     Healthcare Devic
   11ea8:	00000065 20425355 44205641 63697665     e...USB AV Devic
   11eb8:	00000065 20425355 67616944 74736f6e     e...USB Diagnost
   11ec8:	44206369 63697665 00000065 20425355     ic Device...USB 
   11ed8:	65726957 7373656c 6e6f4320 6c6f7274     Wireless Control
   11ee8:	0072656c 00000000                       ler.....

00011ef0 <CSWTCH.21>:
   11ef0:	00011ef8 00011f08 20425355 6279654b     ........USB Keyb
   11f00:	6472616f 00000000 20425355 73756f4d     oard....USB Mous
   11f10:	00000065 202b202b 202b202b 202b202b     e...+ + + + + + 
   11f20:	0000202b 00003141 61656100 01006962     + ..A1...aeabi..
   11f30:	00000027 4d524105 4d445437 02060049     '....ARM7TDMI...
   11f40:	01090108 01140212 03170115 01190118     ................
   11f50:	021e011a 0000012c                       ....,...

00011f58 <DeviceNumbers>:
   11f58:	00000000                                ....

00011f5c <HidEnumerateActionCountField>:
   11f5c:	e2411020 	sub	r1, r1, #32
   11f60:	e92d00f0 	push	{r4, r5, r6, r7}
   11f64:	e351000c 	cmp	r1, #12
   11f68:	979ff101 	ldrls	pc, [pc, r1, lsl #2]
   11f6c:	ea000029 	b	12018 <HidEnumerateActionCountField+0xbc>
   11f70:	00012020 	.word	0x00012020
   11f74:	00012050 	.word	0x00012050
   11f78:	00012018 	.word	0x00012018
   11f7c:	00012018 	.word	0x00012018
   11f80:	00012028 	.word	0x00012028
   11f84:	00012030 	.word	0x00012030
   11f88:	00012018 	.word	0x00012018
   11f8c:	00012018 	.word	0x00012018
   11f90:	00012018 	.word	0x00012018
   11f94:	00012018 	.word	0x00012018
   11f98:	00012018 	.word	0x00012018
   11f9c:	00012018 	.word	0x00012018
   11fa0:	00011fa4 	.word	0x00011fa4
   11fa4:	e3a07003 	mov	r7, #3
   11fa8:	e5d05004 	ldrb	r5, [r0, #4]
   11fac:	e3550000 	cmp	r5, #0
   11fb0:	05d06005 	ldrbeq	r6, [r0, #5]
   11fb4:	0a000027 	beq	12058 <HidEnumerateActionCountField+0xfc>
   11fb8:	e3a03000 	mov	r3, #0
   11fbc:	e5d06005 	ldrb	r6, [r0, #5]
   11fc0:	e1a01003 	mov	r1, r3
   11fc4:	ea000003 	b	11fd8 <HidEnumerateActionCountField+0x7c>
   11fc8:	e2811001 	add	r1, r1, #1
   11fcc:	e1510005 	cmp	r1, r5
   11fd0:	e2833003 	add	r3, r3, #3
   11fd4:	2a00001f 	bcs	12058 <HidEnumerateActionCountField+0xfc>
   11fd8:	e080c003 	add	ip, r0, r3
   11fdc:	e5dc4006 	ldrb	r4, [ip, #6]
   11fe0:	e1540006 	cmp	r4, r6
   11fe4:	1afffff7 	bne	11fc8 <HidEnumerateActionCountField+0x6c>
   11fe8:	e5dcc008 	ldrb	ip, [ip, #8]
   11fec:	e15c0007 	cmp	ip, r7
   11ff0:	1afffff4 	bne	11fc8 <HidEnumerateActionCountField+0x6c>
   11ff4:	e0811081 	add	r1, r1, r1, lsl #1
   11ff8:	e0803001 	add	r3, r0, r1
   11ffc:	e2833006 	add	r3, r3, #6
   12000:	e5d34001 	ldrb	r4, [r3, #1]
   12004:	e3120002 	tst	r2, #2
   12008:	15d02000 	ldrbne	r2, [r0]
   1200c:	02844001 	addeq	r4, r4, #1
   12010:	10824004 	addne	r4, r2, r4
   12014:	e5c34001 	strb	r4, [r3, #1]
   12018:	e8bd00f0 	pop	{r4, r5, r6, r7}
   1201c:	e12fff1e 	bx	lr
   12020:	e3a07001 	mov	r7, #1
   12024:	eaffffdf 	b	11fa8 <HidEnumerateActionCountField+0x4c>
   12028:	e3a07002 	mov	r7, #2
   1202c:	eaffffdd 	b	11fa8 <HidEnumerateActionCountField+0x4c>
   12030:	e1a0c422 	lsr	ip, r2, #8
   12034:	e1a01822 	lsr	r1, r2, #16
   12038:	e1a03c22 	lsr	r3, r2, #24
   1203c:	e5c02000 	strb	r2, [r0]
   12040:	e5c0c001 	strb	ip, [r0, #1]
   12044:	e5c01002 	strb	r1, [r0, #2]
   12048:	e5c03003 	strb	r3, [r0, #3]
   1204c:	eafffff1 	b	12018 <HidEnumerateActionCountField+0xbc>
   12050:	e5c02005 	strb	r2, [r0, #5]
   12054:	eaffffef 	b	12018 <HidEnumerateActionCountField+0xbc>
   12058:	e085c085 	add	ip, r5, r5, lsl #1
   1205c:	e080c00c 	add	ip, r0, ip
   12060:	e28c3006 	add	r3, ip, #6
   12064:	e3a01000 	mov	r1, #0
   12068:	e2855001 	add	r5, r5, #1
   1206c:	e5c05004 	strb	r5, [r0, #4]
   12070:	e1a04001 	mov	r4, r1
   12074:	e5cc6006 	strb	r6, [ip, #6]
   12078:	e5c31001 	strb	r1, [r3, #1]
   1207c:	e5c37002 	strb	r7, [r3, #2]
   12080:	eaffffdf 	b	12004 <HidEnumerateActionCountField+0xa8>

00012084 <HidDetached>:
   12084:	e92d4008 	push	{r3, lr}
   12088:	e5903404 	ldr	r3, [r0, #1028]	; 0x404
   1208c:	e3530000 	cmp	r3, #0
   12090:	0a000008 	beq	120b8 <HidDetached+0x34>
   12094:	e5d32014 	ldrb	r2, [r3, #20]
   12098:	e5d31015 	ldrb	r1, [r3, #21]
   1209c:	e5d3c016 	ldrb	ip, [r3, #22]
   120a0:	e1821401 	orr	r1, r2, r1, lsl #8
   120a4:	e5d32017 	ldrb	r2, [r3, #23]
   120a8:	e181380c 	orr	r3, r1, ip, lsl #16
   120ac:	e1933c02 	orrs	r3, r3, r2, lsl #24
   120b0:	11a0e00f 	movne	lr, pc
   120b4:	112fff13 	bxne	r3
   120b8:	e8bd4008 	pop	{r3, lr}
   120bc:	e12fff1e 	bx	lr

000120c0 <HidEnumerateActionAddField>:
   120c0:	e2411001 	sub	r1, r1, #1
   120c4:	e92d47f0 	push	{r4, r5, r6, r7, r8, r9, sl, lr}
   120c8:	e1a04000 	mov	r4, r0
   120cc:	e1a06002 	mov	r6, r2
   120d0:	e351002f 	cmp	r1, #47	; 0x2f
   120d4:	979ff101 	ldrls	pc, [pc, r1, lsl #2]
   120d8:	ea000063 	b	1226c <HidEnumerateActionAddField+0x1ac>
   120dc:	0001276c 	.word	0x0001276c
   120e0:	00012274 	.word	0x00012274
   120e4:	0001226c 	.word	0x0001226c
   120e8:	0001226c 	.word	0x0001226c
   120ec:	00012788 	.word	0x00012788
   120f0:	00012274 	.word	0x00012274
   120f4:	0001226c 	.word	0x0001226c
   120f8:	0001226c 	.word	0x0001226c
   120fc:	00012300 	.word	0x00012300
   12100:	00012320 	.word	0x00012320
   12104:	0001226c 	.word	0x0001226c
   12108:	0001226c 	.word	0x0001226c
   1210c:	00012394 	.word	0x00012394
   12110:	0001226c 	.word	0x0001226c
   12114:	0001226c 	.word	0x0001226c
   12118:	0001226c 	.word	0x0001226c
   1211c:	000123b4 	.word	0x000123b4
   12120:	0001226c 	.word	0x0001226c
   12124:	0001226c 	.word	0x0001226c
   12128:	0001226c 	.word	0x0001226c
   1212c:	000123d4 	.word	0x000123d4
   12130:	0001226c 	.word	0x0001226c
   12134:	0001226c 	.word	0x0001226c
   12138:	0001226c 	.word	0x0001226c
   1213c:	000123f4 	.word	0x000123f4
   12140:	0001226c 	.word	0x0001226c
   12144:	0001226c 	.word	0x0001226c
   12148:	0001226c 	.word	0x0001226c
   1214c:	000123fc 	.word	0x000123fc
   12150:	0001226c 	.word	0x0001226c
   12154:	0001226c 	.word	0x0001226c
   12158:	0001241c 	.word	0x0001241c
   1215c:	0001275c 	.word	0x0001275c
   12160:	0001226c 	.word	0x0001226c
   12164:	0001226c 	.word	0x0001226c
   12168:	000127c8 	.word	0x000127c8
   1216c:	000127a8 	.word	0x000127a8
   12170:	0001226c 	.word	0x0001226c
   12174:	0001226c 	.word	0x0001226c
   12178:	0001219c 	.word	0x0001219c
   1217c:	0001226c 	.word	0x0001226c
   12180:	0001226c 	.word	0x0001226c
   12184:	0001226c 	.word	0x0001226c
   12188:	00012764 	.word	0x00012764
   1218c:	0001226c 	.word	0x0001226c
   12190:	0001226c 	.word	0x0001226c
   12194:	0001226c 	.word	0x0001226c
   12198:	0001277c 	.word	0x0001277c
   1219c:	e5d0100c 	ldrb	r1, [r0, #12]
   121a0:	e5d0000d 	ldrb	r0, [r0, #13]
   121a4:	e5d4200e 	ldrb	r2, [r4, #14]
   121a8:	e181c400 	orr	ip, r1, r0, lsl #8
   121ac:	e5d4300f 	ldrb	r3, [r4, #15]
   121b0:	e18cc802 	orr	ip, ip, r2, lsl #16
   121b4:	e18ccc03 	orr	ip, ip, r3, lsl #24
   121b8:	e59c5000 	ldr	r5, [ip]
   121bc:	e3750001 	cmn	r5, #1
   121c0:	1a00000a 	bne	121f0 <HidEnumerateActionAddField+0x130>
   121c4:	e28cc004 	add	ip, ip, #4
   121c8:	e1a0042c 	lsr	r0, ip, #8
   121cc:	e1a0282c 	lsr	r2, ip, #16
   121d0:	e20c10ff 	and	r1, ip, #255	; 0xff
   121d4:	e20000ff 	and	r0, r0, #255	; 0xff
   121d8:	e20220ff 	and	r2, r2, #255	; 0xff
   121dc:	e1a03c2c 	lsr	r3, ip, #24
   121e0:	e5c4100c 	strb	r1, [r4, #12]
   121e4:	e5c4000d 	strb	r0, [r4, #13]
   121e8:	e5c4200e 	strb	r2, [r4, #14]
   121ec:	e5c4300f 	strb	r3, [r4, #15]
   121f0:	e21660ff 	ands	r6, r6, #255	; 0xff
   121f4:	0a0001aa 	beq	128a4 <HidEnumerateActionAddField+0x7e4>
   121f8:	e3560001 	cmp	r6, #1
   121fc:	1a00000f 	bne	12240 <HidEnumerateActionAddField+0x180>
   12200:	e1811400 	orr	r1, r1, r0, lsl #8
   12204:	e5d45000 	ldrb	r5, [r4]
   12208:	e5d40001 	ldrb	r0, [r4, #1]
   1220c:	e1812802 	orr	r2, r1, r2, lsl #16
   12210:	e5d4c002 	ldrb	ip, [r4, #2]
   12214:	e5d41003 	ldrb	r1, [r4, #3]
   12218:	e1823c03 	orr	r3, r2, r3, lsl #24
   1221c:	e1850400 	orr	r0, r5, r0, lsl #8
   12220:	e5932000 	ldr	r2, [r3]
   12224:	e180380c 	orr	r3, r0, ip, lsl #16
   12228:	e1833c01 	orr	r3, r3, r1, lsl #24
   1222c:	e5832000 	str	r2, [r3]
   12230:	e5d4100c 	ldrb	r1, [r4, #12]
   12234:	e5d4000d 	ldrb	r0, [r4, #13]
   12238:	e5d4200e 	ldrb	r2, [r4, #14]
   1223c:	e5d4300f 	ldrb	r3, [r4, #15]
   12240:	e1811400 	orr	r1, r1, r0, lsl #8
   12244:	e1812802 	orr	r2, r1, r2, lsl #16
   12248:	e1823c03 	orr	r3, r2, r3, lsl #24
   1224c:	e2433004 	sub	r3, r3, #4
   12250:	e1a00423 	lsr	r0, r3, #8
   12254:	e1a01823 	lsr	r1, r3, #16
   12258:	e1a02c23 	lsr	r2, r3, #24
   1225c:	e5c4300c 	strb	r3, [r4, #12]
   12260:	e5c4000d 	strb	r0, [r4, #13]
   12264:	e5c4100e 	strb	r1, [r4, #14]
   12268:	e5c4200f 	strb	r2, [r4, #15]
   1226c:	e8bd47f0 	pop	{r4, r5, r6, r7, r8, r9, sl, lr}
   12270:	e12fff1e 	bx	lr
   12274:	e5d0300c 	ldrb	r3, [r0, #12]
   12278:	e5d0000d 	ldrb	r0, [r0, #13]
   1227c:	e5d4100e 	ldrb	r1, [r4, #14]
   12280:	e5d4200f 	ldrb	r2, [r4, #15]
   12284:	e1833400 	orr	r3, r3, r0, lsl #8
   12288:	e1833801 	orr	r3, r3, r1, lsl #16
   1228c:	e1832c02 	orr	r2, r3, r2, lsl #24
   12290:	e2823004 	add	r3, r2, #4
   12294:	e1a0c423 	lsr	ip, r3, #8
   12298:	e1a00823 	lsr	r0, r3, #16
   1229c:	e1a01c23 	lsr	r1, r3, #24
   122a0:	e1b05826 	lsrs	r5, r6, #16
   122a4:	e5c4300c 	strb	r3, [r4, #12]
   122a8:	e5c4c00d 	strb	ip, [r4, #13]
   122ac:	e5c4000e 	strb	r0, [r4, #14]
   122b0:	e5c4100f 	strb	r1, [r4, #15]
   122b4:	1584600c 	strne	r6, [r4, #12]
   122b8:	1affffeb 	bne	1226c <HidEnumerateActionAddField+0x1ac>
   122bc:	e1a03426 	lsr	r3, r6, #8
   122c0:	e5c26004 	strb	r6, [r2, #4]
   122c4:	e5c23005 	strb	r3, [r2, #5]
   122c8:	e5d4300c 	ldrb	r3, [r4, #12]
   122cc:	e5d4500d 	ldrb	r5, [r4, #13]
   122d0:	e5d4000e 	ldrb	r0, [r4, #14]
   122d4:	e5d4202c 	ldrb	r2, [r4, #44]	; 0x2c
   122d8:	e5d4c02d 	ldrb	ip, [r4, #45]	; 0x2d
   122dc:	e5d4100f 	ldrb	r1, [r4, #15]
   122e0:	e1833405 	orr	r3, r3, r5, lsl #8
   122e4:	e182240c 	orr	r2, r2, ip, lsl #8
   122e8:	e1833800 	orr	r3, r3, r0, lsl #16
   122ec:	e1833c01 	orr	r3, r3, r1, lsl #24
   122f0:	e1a01422 	lsr	r1, r2, #8
   122f4:	e5c32002 	strb	r2, [r3, #2]
   122f8:	e5c31003 	strb	r1, [r3, #3]
   122fc:	eaffffda 	b	1226c <HidEnumerateActionAddField+0x1ac>
   12300:	e1a01422 	lsr	r1, r2, #8
   12304:	e1a03c26 	lsr	r3, r6, #24
   12308:	e1a02822 	lsr	r2, r2, #16
   1230c:	e5c06018 	strb	r6, [r0, #24]
   12310:	e5c01019 	strb	r1, [r0, #25]
   12314:	e5c0201a 	strb	r2, [r0, #26]
   12318:	e5c0301b 	strb	r3, [r0, #27]
   1231c:	eaffffd2 	b	1226c <HidEnumerateActionAddField+0x1ac>
   12320:	e5d0300c 	ldrb	r3, [r0, #12]
   12324:	e5d0000d 	ldrb	r0, [r0, #13]
   12328:	e5d4100e 	ldrb	r1, [r4, #14]
   1232c:	e5d4200f 	ldrb	r2, [r4, #15]
   12330:	e1833400 	orr	r3, r3, r0, lsl #8
   12334:	e1833801 	orr	r3, r3, r1, lsl #16
   12338:	e1832c02 	orr	r2, r3, r2, lsl #24
   1233c:	e2823004 	add	r3, r2, #4
   12340:	e1a00c23 	lsr	r0, r3, #24
   12344:	e1a05423 	lsr	r5, r3, #8
   12348:	e1a0c823 	lsr	ip, r3, #16
   1234c:	e1a01426 	lsr	r1, r6, #8
   12350:	e5c4000f 	strb	r0, [r4, #15]
   12354:	e5c4300c 	strb	r3, [r4, #12]
   12358:	e5c4500d 	strb	r5, [r4, #13]
   1235c:	e5c4c00e 	strb	ip, [r4, #14]
   12360:	e5c26004 	strb	r6, [r2, #4]
   12364:	e5c21005 	strb	r1, [r2, #5]
   12368:	e5d4300c 	ldrb	r3, [r4, #12]
   1236c:	e5d4000d 	ldrb	r0, [r4, #13]
   12370:	e5d4100e 	ldrb	r1, [r4, #14]
   12374:	e5d4200f 	ldrb	r2, [r4, #15]
   12378:	e1833400 	orr	r3, r3, r0, lsl #8
   1237c:	e1833801 	orr	r3, r3, r1, lsl #16
   12380:	e1833c02 	orr	r3, r3, r2, lsl #24
   12384:	e3e02000 	mvn	r2, #0
   12388:	e5c32002 	strb	r2, [r3, #2]
   1238c:	e5c32003 	strb	r2, [r3, #3]
   12390:	eaffffb5 	b	1226c <HidEnumerateActionAddField+0x1ac>
   12394:	e1a01422 	lsr	r1, r2, #8
   12398:	e1a03c26 	lsr	r3, r6, #24
   1239c:	e1a02822 	lsr	r2, r2, #16
   123a0:	e5c0601c 	strb	r6, [r0, #28]
   123a4:	e5c0101d 	strb	r1, [r0, #29]
   123a8:	e5c0201e 	strb	r2, [r0, #30]
   123ac:	e5c0301f 	strb	r3, [r0, #31]
   123b0:	eaffffad 	b	1226c <HidEnumerateActionAddField+0x1ac>
   123b4:	e1a01422 	lsr	r1, r2, #8
   123b8:	e1a03c26 	lsr	r3, r6, #24
   123bc:	e1a02822 	lsr	r2, r2, #16
   123c0:	e5c06020 	strb	r6, [r0, #32]
   123c4:	e5c01021 	strb	r1, [r0, #33]	; 0x21
   123c8:	e5c02022 	strb	r2, [r0, #34]	; 0x22
   123cc:	e5c03023 	strb	r3, [r0, #35]	; 0x23
   123d0:	eaffffa5 	b	1226c <HidEnumerateActionAddField+0x1ac>
   123d4:	e1a01422 	lsr	r1, r2, #8
   123d8:	e1a03c26 	lsr	r3, r6, #24
   123dc:	e1a02822 	lsr	r2, r2, #16
   123e0:	e5c06028 	strb	r6, [r0, #40]	; 0x28
   123e4:	e5c01029 	strb	r1, [r0, #41]	; 0x29
   123e8:	e5c0202a 	strb	r2, [r0, #42]	; 0x2a
   123ec:	e5c0302b 	strb	r3, [r0, #43]	; 0x2b
   123f0:	eaffff9d 	b	1226c <HidEnumerateActionAddField+0x1ac>
   123f4:	e5842024 	str	r2, [r4, #36]	; 0x24
   123f8:	eaffff9b 	b	1226c <HidEnumerateActionAddField+0x1ac>
   123fc:	e1a01422 	lsr	r1, r2, #8
   12400:	e1a03c26 	lsr	r3, r6, #24
   12404:	e1a02822 	lsr	r2, r2, #16
   12408:	e5c06008 	strb	r6, [r0, #8]
   1240c:	e5c01009 	strb	r1, [r0, #9]
   12410:	e5c0200a 	strb	r2, [r0, #10]
   12414:	e5c0300b 	strb	r3, [r0, #11]
   12418:	eaffff93 	b	1226c <HidEnumerateActionAddField+0x1ac>
   1241c:	e3a07001 	mov	r7, #1
   12420:	e5d41001 	ldrb	r1, [r4, #1]
   12424:	e5d43000 	ldrb	r3, [r4]
   12428:	e5d42002 	ldrb	r2, [r4, #2]
   1242c:	e1833401 	orr	r3, r3, r1, lsl #8
   12430:	e5d41003 	ldrb	r1, [r4, #3]
   12434:	e1833802 	orr	r3, r3, r2, lsl #16
   12438:	e1831c01 	orr	r1, r3, r1, lsl #24
   1243c:	e5d10004 	ldrb	r0, [r1, #4]
   12440:	e3500000 	cmp	r0, #0
   12444:	0a00011c 	beq	128bc <HidEnumerateActionAddField+0x7fc>
   12448:	e5d4c02e 	ldrb	ip, [r4, #46]	; 0x2e
   1244c:	e3a03000 	mov	r3, #0
   12450:	ea000002 	b	12460 <HidEnumerateActionAddField+0x3a0>
   12454:	e1530000 	cmp	r3, r0
   12458:	e2811004 	add	r1, r1, #4
   1245c:	2a00010e 	bcs	1289c <HidEnumerateActionAddField+0x7dc>
   12460:	e5915008 	ldr	r5, [r1, #8]
   12464:	e5d52002 	ldrb	r2, [r5, #2]
   12468:	e152000c 	cmp	r2, ip
   1246c:	e2833001 	add	r3, r3, #1
   12470:	1afffff7 	bne	12454 <HidEnumerateActionAddField+0x394>
   12474:	e5d52003 	ldrb	r2, [r5, #3]
   12478:	e1520007 	cmp	r2, r7
   1247c:	1afffff4 	bne	12454 <HidEnumerateActionAddField+0x394>
   12480:	e5d42005 	ldrb	r2, [r4, #5]
   12484:	e5d43004 	ldrb	r3, [r4, #4]
   12488:	e5d41006 	ldrb	r1, [r4, #6]
   1248c:	e1833402 	orr	r3, r3, r2, lsl #8
   12490:	e5d42007 	ldrb	r2, [r4, #7]
   12494:	e1833801 	orr	r3, r3, r1, lsl #16
   12498:	e1932c02 	orrs	r2, r3, r2, lsl #24
   1249c:	159f7420 	ldrne	r7, [pc, #1056]	; 128c4 <HidEnumerateActionAddField+0x804>
   124a0:	13a08000 	movne	r8, #0
   124a4:	1a000022 	bne	12534 <HidEnumerateActionAddField+0x474>
   124a8:	ea0000f1 	b	12874 <HidEnumerateActionAddField+0x7b4>
   124ac:	e5d40005 	ldrb	r0, [r4, #5]
   124b0:	e5d43004 	ldrb	r3, [r4, #4]
   124b4:	e5d41006 	ldrb	r1, [r4, #6]
   124b8:	e5d42007 	ldrb	r2, [r4, #7]
   124bc:	e1833400 	orr	r3, r3, r0, lsl #8
   124c0:	e1833801 	orr	r3, r3, r1, lsl #16
   124c4:	e1833c02 	orr	r3, r3, r2, lsl #24
   124c8:	e2433001 	sub	r3, r3, #1
   124cc:	e1a00423 	lsr	r0, r3, #8
   124d0:	e1a01823 	lsr	r1, r3, #16
   124d4:	e1a02c23 	lsr	r2, r3, #24
   124d8:	e5c42007 	strb	r2, [r4, #7]
   124dc:	e5c43004 	strb	r3, [r4, #4]
   124e0:	e5c40005 	strb	r0, [r4, #5]
   124e4:	e5c41006 	strb	r1, [r4, #6]
   124e8:	e5d53001 	ldrb	r3, [r5, #1]
   124ec:	e0832103 	add	r2, r3, r3, lsl #2
   124f0:	e0832082 	add	r2, r3, r2, lsl #1
   124f4:	e0852102 	add	r2, r5, r2, lsl #2
   124f8:	e5d51004 	ldrb	r1, [r5, #4]
   124fc:	e5d2000c 	ldrb	r0, [r2, #12]
   12500:	e0801001 	add	r1, r0, r1
   12504:	e5c51004 	strb	r1, [r5, #4]
   12508:	e5828034 	str	r8, [r2, #52]	; 0x34
   1250c:	e2833001 	add	r3, r3, #1
   12510:	e5c53001 	strb	r3, [r5, #1]
   12514:	e5d42005 	ldrb	r2, [r4, #5]
   12518:	e5d43004 	ldrb	r3, [r4, #4]
   1251c:	e5d41006 	ldrb	r1, [r4, #6]
   12520:	e1833402 	orr	r3, r3, r2, lsl #8
   12524:	e5d42007 	ldrb	r2, [r4, #7]
   12528:	e1833801 	orr	r3, r3, r1, lsl #16
   1252c:	e1932c02 	orrs	r2, r3, r2, lsl #24
   12530:	0a0000cf 	beq	12874 <HidEnumerateActionAddField+0x7b4>
   12534:	e5d4200d 	ldrb	r2, [r4, #13]
   12538:	e5d4300c 	ldrb	r3, [r4, #12]
   1253c:	e5d4100e 	ldrb	r1, [r4, #14]
   12540:	e1833402 	orr	r3, r3, r2, lsl #8
   12544:	e5d4200f 	ldrb	r2, [r4, #15]
   12548:	e1833801 	orr	r3, r3, r1, lsl #16
   1254c:	e1833c02 	orr	r3, r3, r2, lsl #24
   12550:	e5932000 	ldr	r2, [r3]
   12554:	e3720001 	cmn	r2, #1
   12558:	0a0000b3 	beq	1282c <HidEnumerateActionAddField+0x76c>
   1255c:	e5d53001 	ldrb	r3, [r5, #1]
   12560:	e0832103 	add	r2, r3, r3, lsl #2
   12564:	e0833082 	add	r3, r3, r2, lsl #1
   12568:	e0853103 	add	r3, r5, r3, lsl #2
   1256c:	e5836010 	str	r6, [r3, #16]
   12570:	e5d53001 	ldrb	r3, [r5, #1]
   12574:	e1a02103 	lsl	r2, r3, #2
   12578:	e0821003 	add	r1, r2, r3
   1257c:	e0831081 	add	r1, r3, r1, lsl #1
   12580:	e0851101 	add	r1, r5, r1, lsl #2
   12584:	e5d11010 	ldrb	r1, [r1, #16]
   12588:	e0822003 	add	r2, r2, r3
   1258c:	e3110002 	tst	r1, #2
   12590:	e0832082 	add	r2, r3, r2, lsl #1
   12594:	05d40004 	ldrbeq	r0, [r4, #4]
   12598:	e1a02102 	lsl	r2, r2, #2
   1259c:	e0853002 	add	r3, r5, r2
   125a0:	13a00001 	movne	r0, #1
   125a4:	e5c3000e 	strb	r0, [r3, #14]
   125a8:	e5d49019 	ldrb	r9, [r4, #25]
   125ac:	e5d40018 	ldrb	r0, [r4, #24]
   125b0:	e5d4a01a 	ldrb	sl, [r4, #26]
   125b4:	e5d4c01b 	ldrb	ip, [r4, #27]
   125b8:	e1800409 	orr	r0, r0, r9, lsl #8
   125bc:	e180080a 	orr	r0, r0, sl, lsl #16
   125c0:	e1800c0c 	orr	r0, r0, ip, lsl #24
   125c4:	e5830020 	str	r0, [r3, #32]
   125c8:	e5d40014 	ldrb	r0, [r4, #20]
   125cc:	e5d49015 	ldrb	r9, [r4, #21]
   125d0:	e5d4a016 	ldrb	sl, [r4, #22]
   125d4:	e5d4c017 	ldrb	ip, [r4, #23]
   125d8:	e1800409 	orr	r0, r0, r9, lsl #8
   125dc:	e180080a 	orr	r0, r0, sl, lsl #16
   125e0:	e1800c0c 	orr	r0, r0, ip, lsl #24
   125e4:	e583001c 	str	r0, [r3, #28]
   125e8:	e5d50004 	ldrb	r0, [r5, #4]
   125ec:	e5c3000d 	strb	r0, [r3, #13]
   125f0:	e5d4a021 	ldrb	sl, [r4, #33]	; 0x21
   125f4:	e5d41020 	ldrb	r1, [r4, #32]
   125f8:	e5d4c022 	ldrb	ip, [r4, #34]	; 0x22
   125fc:	e5d40023 	ldrb	r0, [r4, #35]	; 0x23
   12600:	e181140a 	orr	r1, r1, sl, lsl #8
   12604:	e181180c 	orr	r1, r1, ip, lsl #16
   12608:	e1811c00 	orr	r1, r1, r0, lsl #24
   1260c:	e5831028 	str	r1, [r3, #40]	; 0x28
   12610:	e5d4a01d 	ldrb	sl, [r4, #29]
   12614:	e5d4101c 	ldrb	r1, [r4, #28]
   12618:	e5d4c01e 	ldrb	ip, [r4, #30]
   1261c:	e5d4001f 	ldrb	r0, [r4, #31]
   12620:	e181140a 	orr	r1, r1, sl, lsl #8
   12624:	e181180c 	orr	r1, r1, ip, lsl #16
   12628:	e1811c00 	orr	r1, r1, r0, lsl #24
   1262c:	e5831024 	str	r1, [r3, #36]	; 0x24
   12630:	e5943010 	ldr	r3, [r4, #16]
   12634:	e0852002 	add	r2, r5, r2
   12638:	e5823018 	str	r3, [r2, #24]
   1263c:	e5d53001 	ldrb	r3, [r5, #1]
   12640:	e0832103 	add	r2, r3, r3, lsl #2
   12644:	e0833082 	add	r3, r3, r2, lsl #1
   12648:	e5d41008 	ldrb	r1, [r4, #8]
   1264c:	e1a03103 	lsl	r3, r3, #2
   12650:	e0852003 	add	r2, r5, r3
   12654:	e5c2100c 	strb	r1, [r2, #12]
   12658:	e5942024 	ldr	r2, [r4, #36]	; 0x24
   1265c:	e0853003 	add	r3, r5, r3
   12660:	e583202c 	str	r2, [r3, #44]	; 0x2c
   12664:	e5d53001 	ldrb	r3, [r5, #1]
   12668:	e5d41028 	ldrb	r1, [r4, #40]	; 0x28
   1266c:	e5d4a029 	ldrb	sl, [r4, #41]	; 0x29
   12670:	e5d4c02a 	ldrb	ip, [r4, #42]	; 0x2a
   12674:	e0832103 	add	r2, r3, r3, lsl #2
   12678:	e5d4002b 	ldrb	r0, [r4, #43]	; 0x2b
   1267c:	e0833082 	add	r3, r3, r2, lsl #1
   12680:	e181140a 	orr	r1, r1, sl, lsl #8
   12684:	e1a02103 	lsl	r2, r3, #2
   12688:	e181180c 	orr	r1, r1, ip, lsl #16
   1268c:	e1811c00 	orr	r1, r1, r0, lsl #24
   12690:	e0853002 	add	r3, r5, r2
   12694:	e5831030 	str	r1, [r3, #48]	; 0x30
   12698:	e5d4100d 	ldrb	r1, [r4, #13]
   1269c:	e5d4300c 	ldrb	r3, [r4, #12]
   126a0:	e5d4000e 	ldrb	r0, [r4, #14]
   126a4:	e1833401 	orr	r3, r3, r1, lsl #8
   126a8:	e5d4100f 	ldrb	r1, [r4, #15]
   126ac:	e1833800 	orr	r3, r3, r0, lsl #16
   126b0:	e1833c01 	orr	r3, r3, r1, lsl #24
   126b4:	e5d31002 	ldrb	r1, [r3, #2]
   126b8:	e5d30003 	ldrb	r0, [r3, #3]
   126bc:	e1811400 	orr	r1, r1, r0, lsl #8
   126c0:	e1510007 	cmp	r1, r7
   126c4:	0a000041 	beq	127d0 <HidEnumerateActionAddField+0x710>
   126c8:	e413a004 	ldr	sl, [r3], #-4
   126cc:	e0852002 	add	r2, r5, r2
   126d0:	e1a0c423 	lsr	ip, r3, #8
   126d4:	e1a00823 	lsr	r0, r3, #16
   126d8:	e1a01c23 	lsr	r1, r3, #24
   126dc:	e582a014 	str	sl, [r2, #20]
   126e0:	e5c4300c 	strb	r3, [r4, #12]
   126e4:	e5c4c00d 	strb	ip, [r4, #13]
   126e8:	e5c4000e 	strb	r0, [r4, #14]
   126ec:	e5c4100f 	strb	r1, [r4, #15]
   126f0:	e5d53001 	ldrb	r3, [r5, #1]
   126f4:	e0832103 	add	r2, r3, r3, lsl #2
   126f8:	e0833082 	add	r3, r3, r2, lsl #1
   126fc:	e0853103 	add	r3, r5, r3, lsl #2
   12700:	e5d33010 	ldrb	r3, [r3, #16]
   12704:	e1a030a3 	lsr	r3, r3, #1
   12708:	e2133001 	ands	r3, r3, #1
   1270c:	1affff66 	bne	124ac <HidEnumerateActionAddField+0x3ec>
   12710:	e5c43004 	strb	r3, [r4, #4]
   12714:	e5c43005 	strb	r3, [r4, #5]
   12718:	e5c43006 	strb	r3, [r4, #6]
   1271c:	e5c43007 	strb	r3, [r4, #7]
   12720:	e5d53001 	ldrb	r3, [r5, #1]
   12724:	e083a103 	add	sl, r3, r3, lsl #2
   12728:	e083308a 	add	r3, r3, sl, lsl #1
   1272c:	e085a103 	add	sl, r5, r3, lsl #2
   12730:	e5da300e 	ldrb	r3, [sl, #14]
   12734:	e5da000c 	ldrb	r0, [sl, #12]
   12738:	e0000093 	mul	r0, r3, r0
   1273c:	e5d53004 	ldrb	r3, [r5, #4]
   12740:	e0803003 	add	r3, r0, r3
   12744:	e5c53004 	strb	r3, [r5, #4]
   12748:	e1a001a0 	lsr	r0, r0, #3
   1274c:	ebffe4a6 	bl	b9ec <MemoryAllocate>
   12750:	e58a0034 	str	r0, [sl, #52]	; 0x34
   12754:	e5d53001 	ldrb	r3, [r5, #1]
   12758:	eaffff6b 	b	1250c <HidEnumerateActionAddField+0x44c>
   1275c:	e5c4202e 	strb	r2, [r4, #46]	; 0x2e
   12760:	eafffec1 	b	1226c <HidEnumerateActionAddField+0x1ac>
   12764:	e3a07003 	mov	r7, #3
   12768:	eaffff2c 	b	12420 <HidEnumerateActionAddField+0x360>
   1276c:	e1a03422 	lsr	r3, r2, #8
   12770:	e5c4202c 	strb	r2, [r4, #44]	; 0x2c
   12774:	e5c0302d 	strb	r3, [r0, #45]	; 0x2d
   12778:	eafffebb 	b	1226c <HidEnumerateActionAddField+0x1ac>
   1277c:	e21260ff 	ands	r6, r2, #255	; 0xff
   12780:	05806010 	streq	r6, [r0, #16]
   12784:	eafffeb8 	b	1226c <HidEnumerateActionAddField+0x1ac>
   12788:	e1a01422 	lsr	r1, r2, #8
   1278c:	e1a03c26 	lsr	r3, r6, #24
   12790:	e1a02822 	lsr	r2, r2, #16
   12794:	e5c06014 	strb	r6, [r0, #20]
   12798:	e5c01015 	strb	r1, [r0, #21]
   1279c:	e5c02016 	strb	r2, [r0, #22]
   127a0:	e5c03017 	strb	r3, [r0, #23]
   127a4:	eafffeb0 	b	1226c <HidEnumerateActionAddField+0x1ac>
   127a8:	e1a01422 	lsr	r1, r2, #8
   127ac:	e1a03c26 	lsr	r3, r6, #24
   127b0:	e1a02822 	lsr	r2, r2, #16
   127b4:	e5c06004 	strb	r6, [r0, #4]
   127b8:	e5c01005 	strb	r1, [r0, #5]
   127bc:	e5c02006 	strb	r2, [r0, #6]
   127c0:	e5c03007 	strb	r3, [r0, #7]
   127c4:	eafffea8 	b	1226c <HidEnumerateActionAddField+0x1ac>
   127c8:	e3a07002 	mov	r7, #2
   127cc:	eaffff13 	b	12420 <HidEnumerateActionAddField+0x360>
   127d0:	e5131004 	ldr	r1, [r3, #-4]
   127d4:	e0852002 	add	r2, r5, r2
   127d8:	e5821014 	str	r1, [r2, #20]
   127dc:	e5531004 	ldrb	r1, [r3, #-4]
   127e0:	e553c003 	ldrb	ip, [r3, #-3]
   127e4:	e5d32000 	ldrb	r2, [r3]
   127e8:	e5d30001 	ldrb	r0, [r3, #1]
   127ec:	e181140c 	orr	r1, r1, ip, lsl #8
   127f0:	e1822400 	orr	r2, r2, r0, lsl #8
   127f4:	e1520001 	cmp	r2, r1
   127f8:	0a000014 	beq	12850 <HidEnumerateActionAddField+0x790>
   127fc:	e5d52001 	ldrb	r2, [r5, #1]
   12800:	e0820102 	add	r0, r2, r2, lsl #2
   12804:	e0822080 	add	r2, r2, r0, lsl #1
   12808:	e0852102 	add	r2, r5, r2, lsl #2
   1280c:	e5d22010 	ldrb	r2, [r2, #16]
   12810:	e3120002 	tst	r2, #2
   12814:	0a00000d 	beq	12850 <HidEnumerateActionAddField+0x790>
   12818:	e2811001 	add	r1, r1, #1
   1281c:	e1a02421 	lsr	r2, r1, #8
   12820:	e5431004 	strb	r1, [r3, #-4]
   12824:	e5432003 	strb	r2, [r3, #-3]
   12828:	eaffffb0 	b	126f0 <HidEnumerateActionAddField+0x630>
   1282c:	e2833004 	add	r3, r3, #4
   12830:	e1a00423 	lsr	r0, r3, #8
   12834:	e1a01823 	lsr	r1, r3, #16
   12838:	e1a02c23 	lsr	r2, r3, #24
   1283c:	e5c4300c 	strb	r3, [r4, #12]
   12840:	e5c4000d 	strb	r0, [r4, #13]
   12844:	e5c4100e 	strb	r1, [r4, #14]
   12848:	e5c4200f 	strb	r2, [r4, #15]
   1284c:	eaffff42 	b	1255c <HidEnumerateActionAddField+0x49c>
   12850:	e2433008 	sub	r3, r3, #8
   12854:	e1a00423 	lsr	r0, r3, #8
   12858:	e1a01823 	lsr	r1, r3, #16
   1285c:	e1a02c23 	lsr	r2, r3, #24
   12860:	e5c4300c 	strb	r3, [r4, #12]
   12864:	e5c4000d 	strb	r0, [r4, #13]
   12868:	e5c4100e 	strb	r1, [r4, #14]
   1286c:	e5c4200f 	strb	r2, [r4, #15]
   12870:	eaffff9e 	b	126f0 <HidEnumerateActionAddField+0x630>
   12874:	e5d4300c 	ldrb	r3, [r4, #12]
   12878:	e5d4000d 	ldrb	r0, [r4, #13]
   1287c:	e5d4100e 	ldrb	r1, [r4, #14]
   12880:	e5d4200f 	ldrb	r2, [r4, #15]
   12884:	e1833400 	orr	r3, r3, r0, lsl #8
   12888:	e1833801 	orr	r3, r3, r1, lsl #16
   1288c:	e1833c02 	orr	r3, r3, r2, lsl #24
   12890:	e3a02000 	mov	r2, #0
   12894:	e5832004 	str	r2, [r3, #4]
   12898:	eafffe73 	b	1226c <HidEnumerateActionAddField+0x1ac>
   1289c:	e3a05000 	mov	r5, #0
   128a0:	eafffef6 	b	12480 <HidEnumerateActionAddField+0x3c0>
   128a4:	e181c400 	orr	ip, r1, r0, lsl #8
   128a8:	e18cc802 	orr	ip, ip, r2, lsl #16
   128ac:	e18ccc03 	orr	ip, ip, r3, lsl #24
   128b0:	e59cc000 	ldr	ip, [ip]
   128b4:	e584c010 	str	ip, [r4, #16]
   128b8:	eafffe60 	b	12240 <HidEnumerateActionAddField+0x180>
   128bc:	e1a05000 	mov	r5, r0
   128c0:	eafffeee 	b	12480 <HidEnumerateActionAddField+0x3c0>
   128c4:	0000ffff 	.word	0x0000ffff

000128c8 <HidDeallocate>:
   128c8:	e92d47f0 	push	{r4, r5, r6, r7, r8, r9, sl, lr}
   128cc:	e5906404 	ldr	r6, [r0, #1028]	; 0x404
   128d0:	e3560000 	cmp	r6, #0
   128d4:	e1a0a000 	mov	sl, r0
   128d8:	0a00004a 	beq	12a08 <HidDeallocate+0x140>
   128dc:	e5d62019 	ldrb	r2, [r6, #25]
   128e0:	e5d63018 	ldrb	r3, [r6, #24]
   128e4:	e5d6101a 	ldrb	r1, [r6, #26]
   128e8:	e1833402 	orr	r3, r3, r2, lsl #8
   128ec:	e5d6201b 	ldrb	r2, [r6, #27]
   128f0:	e1833801 	orr	r3, r3, r1, lsl #16
   128f4:	e1933c02 	orrs	r3, r3, r2, lsl #24
   128f8:	11a0e00f 	movne	lr, pc
   128fc:	112fff13 	bxne	r3
   12900:	e5d6200c 	ldrb	r2, [r6, #12]
   12904:	e5d6100d 	ldrb	r1, [r6, #13]
   12908:	e5d6c00e 	ldrb	ip, [r6, #14]
   1290c:	e1820401 	orr	r0, r2, r1, lsl #8
   12910:	e5d6300f 	ldrb	r3, [r6, #15]
   12914:	e180080c 	orr	r0, r0, ip, lsl #16
   12918:	e1900c03 	orrs	r0, r0, r3, lsl #24
   1291c:	0a000037 	beq	12a00 <HidDeallocate+0x138>
   12920:	e5d0e004 	ldrb	lr, [r0, #4]
   12924:	e35e0000 	cmp	lr, #0
   12928:	0a000033 	beq	129fc <HidDeallocate+0x134>
   1292c:	e3a07000 	mov	r7, #0
   12930:	e2878002 	add	r8, r7, #2
   12934:	e7909108 	ldr	r9, [r0, r8, lsl #2]
   12938:	e3590000 	cmp	r9, #0
   1293c:	0a000027 	beq	129e0 <HidDeallocate+0x118>
   12940:	e5d93008 	ldrb	r3, [r9, #8]
   12944:	e5990004 	ldr	r0, [r9, #4]
   12948:	e1a03c03 	lsl	r3, r3, #24
   1294c:	e1930420 	orrs	r0, r3, r0, lsr #8
   12950:	1bffe539 	blne	be3c <MemoryDeallocate>
   12954:	e5d92001 	ldrb	r2, [r9, #1]
   12958:	e3520000 	cmp	r2, #0
   1295c:	11a05009 	movne	r5, r9
   12960:	13a04000 	movne	r4, #0
   12964:	1a000003 	bne	12978 <HidDeallocate+0xb0>
   12968:	ea00000f 	b	129ac <HidDeallocate+0xe4>
   1296c:	e1520004 	cmp	r2, r4
   12970:	e285502c 	add	r5, r5, #44	; 0x2c
   12974:	9a00000c 	bls	129ac <HidDeallocate+0xe4>
   12978:	e0843104 	add	r3, r4, r4, lsl #2
   1297c:	e0843083 	add	r3, r4, r3, lsl #1
   12980:	e0893103 	add	r3, r9, r3, lsl #2
   12984:	e5d33010 	ldrb	r3, [r3, #16]
   12988:	e3130002 	tst	r3, #2
   1298c:	e2844001 	add	r4, r4, #1
   12990:	1afffff5 	bne	1296c <HidDeallocate+0xa4>
   12994:	e5950034 	ldr	r0, [r5, #52]	; 0x34
   12998:	ebffe527 	bl	be3c <MemoryDeallocate>
   1299c:	e5d92001 	ldrb	r2, [r9, #1]
   129a0:	e1520004 	cmp	r2, r4
   129a4:	e285502c 	add	r5, r5, #44	; 0x2c
   129a8:	8afffff2 	bhi	12978 <HidDeallocate+0xb0>
   129ac:	e5d6200d 	ldrb	r2, [r6, #13]
   129b0:	e5d6300c 	ldrb	r3, [r6, #12]
   129b4:	e5d6100e 	ldrb	r1, [r6, #14]
   129b8:	e1833402 	orr	r3, r3, r2, lsl #8
   129bc:	e5d6200f 	ldrb	r2, [r6, #15]
   129c0:	e1833801 	orr	r3, r3, r1, lsl #16
   129c4:	e1833c02 	orr	r3, r3, r2, lsl #24
   129c8:	e7930108 	ldr	r0, [r3, r8, lsl #2]
   129cc:	ebffe51a 	bl	be3c <MemoryDeallocate>
   129d0:	e5d6200c 	ldrb	r2, [r6, #12]
   129d4:	e5d6100d 	ldrb	r1, [r6, #13]
   129d8:	e5d6c00e 	ldrb	ip, [r6, #14]
   129dc:	e5d6300f 	ldrb	r3, [r6, #15]
   129e0:	e1820401 	orr	r0, r2, r1, lsl #8
   129e4:	e180080c 	orr	r0, r0, ip, lsl #16
   129e8:	e1800c03 	orr	r0, r0, r3, lsl #24
   129ec:	e5d0e004 	ldrb	lr, [r0, #4]
   129f0:	e2877001 	add	r7, r7, #1
   129f4:	e15e0007 	cmp	lr, r7
   129f8:	8affffcc 	bhi	12930 <HidDeallocate+0x68>
   129fc:	ebffe50e 	bl	be3c <MemoryDeallocate>
   12a00:	e1a00006 	mov	r0, r6
   12a04:	ebffe50c 	bl	be3c <MemoryDeallocate>
   12a08:	e3a03000 	mov	r3, #0
   12a0c:	e58a3010 	str	r3, [sl, #16]
   12a10:	e58a300c 	str	r3, [sl, #12]
   12a14:	e8bd47f0 	pop	{r4, r5, r6, r7, r8, r9, sl, lr}
   12a18:	e12fff1e 	bx	lr

00012a1c <HidEnumerateActionCountReport>:
   12a1c:	e2411020 	sub	r1, r1, #32
   12a20:	e351000c 	cmp	r1, #12
   12a24:	979ff101 	ldrls	pc, [pc, r1, lsl #2]
   12a28:	ea000010 	b	12a70 <HidEnumerateActionCountReport+0x54>
   12a2c:	00012ab4 	.word	0x00012ab4
   12a30:	00012a60 	.word	0x00012a60
   12a34:	00012a70 	.word	0x00012a70
   12a38:	00012a70 	.word	0x00012a70
   12a3c:	00012a94 	.word	0x00012a94
   12a40:	00012a70 	.word	0x00012a70
   12a44:	00012a70 	.word	0x00012a70
   12a48:	00012a70 	.word	0x00012a70
   12a4c:	00012a70 	.word	0x00012a70
   12a50:	00012a70 	.word	0x00012a70
   12a54:	00012a70 	.word	0x00012a70
   12a58:	00012a70 	.word	0x00012a70
   12a5c:	00012a74 	.word	0x00012a74
   12a60:	e3a03000 	mov	r3, #0
   12a64:	e5c03004 	strb	r3, [r0, #4]
   12a68:	e5c03003 	strb	r3, [r0, #3]
   12a6c:	e5c03002 	strb	r3, [r0, #2]
   12a70:	e12fff1e 	bx	lr
   12a74:	e5d03004 	ldrb	r3, [r0, #4]
   12a78:	e3530000 	cmp	r3, #0
   12a7c:	05d03000 	ldrbeq	r3, [r0]
   12a80:	02833001 	addeq	r3, r3, #1
   12a84:	05c03000 	strbeq	r3, [r0]
   12a88:	03a03001 	moveq	r3, #1
   12a8c:	05c03004 	strbeq	r3, [r0, #4]
   12a90:	e12fff1e 	bx	lr
   12a94:	e5d03003 	ldrb	r3, [r0, #3]
   12a98:	e3530000 	cmp	r3, #0
   12a9c:	05d03000 	ldrbeq	r3, [r0]
   12aa0:	02833001 	addeq	r3, r3, #1
   12aa4:	05c03000 	strbeq	r3, [r0]
   12aa8:	03a03001 	moveq	r3, #1
   12aac:	05c03003 	strbeq	r3, [r0, #3]
   12ab0:	e12fff1e 	bx	lr
   12ab4:	e5d03002 	ldrb	r3, [r0, #2]
   12ab8:	e3530000 	cmp	r3, #0
   12abc:	05d03000 	ldrbeq	r3, [r0]
   12ac0:	02833001 	addeq	r3, r3, #1
   12ac4:	05c03000 	strbeq	r3, [r0]
   12ac8:	03a03001 	moveq	r3, #1
   12acc:	05c03002 	strbeq	r3, [r0, #2]
   12ad0:	e12fff1e 	bx	lr

00012ad4 <HidGetReport>:
   12ad4:	e92d40f0 	push	{r4, r5, r6, r7, lr}
   12ad8:	e5d0e01b 	ldrb	lr, [r0, #27]
   12adc:	e20ee0ff 	and	lr, lr, #255	; 0xff
   12ae0:	e24dd01c 	sub	sp, sp, #28
   12ae4:	e3a04000 	mov	r4, #0
   12ae8:	e35e0008 	cmp	lr, #8
   12aec:	e1a05003 	mov	r5, r3
   12af0:	e59dc030 	ldr	ip, [sp, #48]	; 0x30
   12af4:	e58d400c 	str	r4, [sp, #12]
   12af8:	9a000005 	bls	12b14 <HidGetReport+0x40>
   12afc:	e35e0010 	cmp	lr, #16
   12b00:	93a04001 	movls	r4, #1
   12b04:	9a000002 	bls	12b14 <HidGetReport+0x40>
   12b08:	e35e0020 	cmp	lr, #32
   12b0c:	83a04003 	movhi	r4, #3
   12b10:	93a04002 	movls	r4, #2
   12b14:	e5dd600c 	ldrb	r6, [sp, #12]
   12b18:	e5d07004 	ldrb	r7, [r0, #4]
   12b1c:	e5dd300e 	ldrb	r3, [sp, #14]
   12b20:	e20660f0 	and	r6, r6, #240	; 0xf0
   12b24:	e2077003 	and	r7, r7, #3
   12b28:	e1864004 	orr	r4, r6, r4
   12b2c:	e3833004 	orr	r3, r3, #4
   12b30:	e5d06000 	ldrb	r6, [r0]
   12b34:	e1844107 	orr	r4, r4, r7, lsl #2
   12b38:	e5cd300e 	strb	r3, [sp, #14]
   12b3c:	e28d3010 	add	r3, sp, #16
   12b40:	e5cd400c 	strb	r4, [sp, #12]
   12b44:	e5cd600d 	strb	r6, [sp, #13]
   12b48:	e58d3000 	str	r3, [sp]
   12b4c:	e3e0405e 	mvn	r4, #94	; 0x5e
   12b50:	e3a0300a 	mov	r3, #10
   12b54:	e182e401 	orr	lr, r2, r1, lsl #8
   12b58:	e58d3004 	str	r3, [sp, #4]
   12b5c:	e5cd4010 	strb	r4, [sp, #16]
   12b60:	e59d100c 	ldr	r1, [sp, #12]
   12b64:	e3a04001 	mov	r4, #1
   12b68:	e59d2034 	ldr	r2, [sp, #52]	; 0x34
   12b6c:	e1a0300c 	mov	r3, ip
   12b70:	e5cd4011 	strb	r4, [sp, #17]
   12b74:	e1cde1b2 	strh	lr, [sp, #18]
   12b78:	e1cd51b4 	strh	r5, [sp, #20]
   12b7c:	e1cdc1b6 	strh	ip, [sp, #22]
   12b80:	ebfff84d 	bl	10cbc <UsbControlMessage>
   12b84:	e28dd01c 	add	sp, sp, #28
   12b88:	e8bd40f0 	pop	{r4, r5, r6, r7, lr}
   12b8c:	e12fff1e 	bx	lr

00012b90 <HidSetReport>:
   12b90:	e92d4070 	push	{r4, r5, r6, lr}
   12b94:	e5d0e01b 	ldrb	lr, [r0, #27]
   12b98:	e20ee0ff 	and	lr, lr, #255	; 0xff
   12b9c:	e24dd018 	sub	sp, sp, #24
   12ba0:	e3a04000 	mov	r4, #0
   12ba4:	e35e0008 	cmp	lr, #8
   12ba8:	e1a05003 	mov	r5, r3
   12bac:	e59dc028 	ldr	ip, [sp, #40]	; 0x28
   12bb0:	e58d400c 	str	r4, [sp, #12]
   12bb4:	9a000005 	bls	12bd0 <HidSetReport+0x40>
   12bb8:	e35e0010 	cmp	lr, #16
   12bbc:	93a04001 	movls	r4, #1
   12bc0:	9a000002 	bls	12bd0 <HidSetReport+0x40>
   12bc4:	e35e0020 	cmp	lr, #32
   12bc8:	83a04003 	movhi	r4, #3
   12bcc:	93a04002 	movls	r4, #2
   12bd0:	e5dd300c 	ldrb	r3, [sp, #12]
   12bd4:	e5d06004 	ldrb	r6, [r0, #4]
   12bd8:	e20330f0 	and	r3, r3, #240	; 0xf0
   12bdc:	e1834004 	orr	r4, r3, r4
   12be0:	e5d03000 	ldrb	r3, [r0]
   12be4:	e2066003 	and	r6, r6, #3
   12be8:	e1844106 	orr	r4, r4, r6, lsl #2
   12bec:	e5cd300d 	strb	r3, [sp, #13]
   12bf0:	e28d3010 	add	r3, sp, #16
   12bf4:	e5cd400c 	strb	r4, [sp, #12]
   12bf8:	e58d3000 	str	r3, [sp]
   12bfc:	e3a04021 	mov	r4, #33	; 0x21
   12c00:	e3a0300a 	mov	r3, #10
   12c04:	e182e401 	orr	lr, r2, r1, lsl #8
   12c08:	e58d3004 	str	r3, [sp, #4]
   12c0c:	e5cd4010 	strb	r4, [sp, #16]
   12c10:	e59d100c 	ldr	r1, [sp, #12]
   12c14:	e3a04009 	mov	r4, #9
   12c18:	e59d202c 	ldr	r2, [sp, #44]	; 0x2c
   12c1c:	e1a0300c 	mov	r3, ip
   12c20:	e5cd4011 	strb	r4, [sp, #17]
   12c24:	e1cde1b2 	strh	lr, [sp, #18]
   12c28:	e1cd51b4 	strh	r5, [sp, #20]
   12c2c:	e1cdc1b6 	strh	ip, [sp, #22]
   12c30:	ebfff821 	bl	10cbc <UsbControlMessage>
   12c34:	e28dd018 	add	sp, sp, #24
   12c38:	e8bd4070 	pop	{r4, r5, r6, lr}
   12c3c:	e12fff1e 	bx	lr

00012c40 <BitSet>:
   12c40:	e92d0ff0 	push	{r4, r5, r6, r7, r8, r9, sl, fp}
   12c44:	e0825001 	add	r5, r2, r1
   12c48:	e2856007 	add	r6, r5, #7
   12c4c:	e1a041a1 	lsr	r4, r1, #3
   12c50:	e1a061a6 	lsr	r6, r6, #3
   12c54:	e1540006 	cmp	r4, r6
   12c58:	e24dd010 	sub	sp, sp, #16
   12c5c:	2a00003f 	bcs	12d60 <BitSet+0x120>
   12c60:	e201a007 	and	sl, r1, #7
   12c64:	e08a8002 	add	r8, sl, r2
   12c68:	e3a01001 	mov	r1, #1
   12c6c:	e1a08811 	lsl	r8, r1, r8
   12c70:	e1a01a11 	lsl	r1, r1, sl
   12c74:	e1a0ca13 	lsl	ip, r3, sl
   12c78:	e20120ff 	and	r2, r1, #255	; 0xff
   12c7c:	e20880ff 	and	r8, r8, #255	; 0xff
   12c80:	e0629008 	rsb	r9, r2, r8
   12c84:	e2622000 	rsb	r2, r2, #0
   12c88:	e2488001 	sub	r8, r8, #1
   12c8c:	e20220ff 	and	r2, r2, #255	; 0xff
   12c90:	e20880ff 	and	r8, r8, #255	; 0xff
   12c94:	e20cc0ff 	and	ip, ip, #255	; 0xff
   12c98:	e20990ff 	and	r9, r9, #255	; 0xff
   12c9c:	e1e07002 	mvn	r7, r2
   12ca0:	e1e01008 	mvn	r1, r8
   12ca4:	e00c2002 	and	r2, ip, r2
   12ca8:	e1e0b009 	mvn	fp, r9
   12cac:	e2455001 	sub	r5, r5, #1
   12cb0:	e20770ff 	and	r7, r7, #255	; 0xff
   12cb4:	e20110ff 	and	r1, r1, #255	; 0xff
   12cb8:	e009900c 	and	r9, r9, ip
   12cbc:	e58d2008 	str	r2, [sp, #8]
   12cc0:	e1a051a5 	lsr	r5, r5, #3
   12cc4:	e20bb0ff 	and	fp, fp, #255	; 0xff
   12cc8:	e58d7004 	str	r7, [sp, #4]
   12ccc:	e58d100c 	str	r1, [sp, #12]
   12cd0:	e1a02004 	mov	r2, r4
   12cd4:	e3a0c000 	mov	ip, #0
   12cd8:	e26aa008 	rsb	sl, sl, #8
   12cdc:	e58d8000 	str	r8, [sp]
   12ce0:	ea00000d 	b	12d1c <BitSet+0xdc>
   12ce4:	e1550002 	cmp	r5, r2
   12ce8:	059d1000 	ldreq	r1, [sp]
   12cec:	11a01c33 	lsrne	r1, r3, ip
   12cf0:	00017c33 	andeq	r7, r1, r3, lsr ip
   12cf4:	059d800c 	ldreq	r8, [sp, #12]
   12cf8:	07d01005 	ldrbeq	r1, [r0, r5]
   12cfc:	00011008 	andeq	r1, r1, r8
   12d00:	01871001 	orreq	r1, r7, r1
   12d04:	17c01002 	strbne	r1, [r0, r2]
   12d08:	e2822001 	add	r2, r2, #1
   12d0c:	07c01005 	strbeq	r1, [r0, r5]
   12d10:	128cc008 	addne	ip, ip, #8
   12d14:	e1520006 	cmp	r2, r6
   12d18:	0a000010 	beq	12d60 <BitSet+0x120>
   12d1c:	e1540005 	cmp	r4, r5
   12d20:	07d01002 	ldrbeq	r1, [r0, r2]
   12d24:	0001100b 	andeq	r1, r1, fp
   12d28:	01891001 	orreq	r1, r9, r1
   12d2c:	07c01002 	strbeq	r1, [r0, r2]
   12d30:	e1520004 	cmp	r2, r4
   12d34:	1affffea 	bne	12ce4 <BitSet+0xa4>
   12d38:	e7d01002 	ldrb	r1, [r0, r2]
   12d3c:	e59d7004 	ldr	r7, [sp, #4]
   12d40:	e59d8008 	ldr	r8, [sp, #8]
   12d44:	e0071001 	and	r1, r7, r1
   12d48:	e1881001 	orr	r1, r8, r1
   12d4c:	e7c01002 	strb	r1, [r0, r2]
   12d50:	e2822001 	add	r2, r2, #1
   12d54:	e1520006 	cmp	r2, r6
   12d58:	e08cc00a 	add	ip, ip, sl
   12d5c:	1affffee 	bne	12d1c <BitSet+0xdc>
   12d60:	e28dd010 	add	sp, sp, #16
   12d64:	e8bd0ff0 	pop	{r4, r5, r6, r7, r8, r9, sl, fp}
   12d68:	e12fff1e 	bx	lr

00012d6c <BitGetUnsigned>:
   12d6c:	e92d0ff0 	push	{r4, r5, r6, r7, r8, r9, sl, fp}
   12d70:	e0825001 	add	r5, r2, r1
   12d74:	e2856007 	add	r6, r5, #7
   12d78:	e1a0c1a1 	lsr	ip, r1, #3
   12d7c:	e1a061a6 	lsr	r6, r6, #3
   12d80:	e15c0006 	cmp	ip, r6
   12d84:	e24dd008 	sub	sp, sp, #8
   12d88:	e1a07000 	mov	r7, r0
   12d8c:	2a000036 	bcs	12e6c <BitGetUnsigned+0x100>
   12d90:	e2011007 	and	r1, r1, #7
   12d94:	e3a0b001 	mov	fp, #1
   12d98:	e0813002 	add	r3, r1, r2
   12d9c:	e1a0331b 	lsl	r3, fp, r3
   12da0:	e1a0b11b 	lsl	fp, fp, r1
   12da4:	e20330ff 	and	r3, r3, #255	; 0xff
   12da8:	e20bb0ff 	and	fp, fp, #255	; 0xff
   12dac:	e06b9003 	rsb	r9, fp, r3
   12db0:	e2433001 	sub	r3, r3, #1
   12db4:	e20330ff 	and	r3, r3, #255	; 0xff
   12db8:	e2455001 	sub	r5, r5, #1
   12dbc:	e26bb000 	rsb	fp, fp, #0
   12dc0:	e3a04000 	mov	r4, #0
   12dc4:	e2618008 	rsb	r8, r1, #8
   12dc8:	e58d3004 	str	r3, [sp, #4]
   12dcc:	e1a051a5 	lsr	r5, r5, #3
   12dd0:	e20990ff 	and	r9, r9, #255	; 0xff
   12dd4:	e20bb0ff 	and	fp, fp, #255	; 0xff
   12dd8:	e1a0300c 	mov	r3, ip
   12ddc:	e1a00004 	mov	r0, r4
   12de0:	e58d8000 	str	r8, [sp]
   12de4:	ea00000d 	b	12e20 <BitGetUnsigned+0xb4>
   12de8:	e153000c 	cmp	r3, ip
   12dec:	0a000016 	beq	12e4c <BitGetUnsigned+0xe0>
   12df0:	e1550003 	cmp	r5, r3
   12df4:	17d7a003 	ldrbne	sl, [r7, r3]
   12df8:	12844008 	addne	r4, r4, #8
   12dfc:	10648002 	rsbne	r8, r4, r2
   12e00:	1180081a 	orrne	r0, r0, sl, lsl r8
   12e04:	07d78005 	ldrbeq	r8, [r7, r5]
   12e08:	059da004 	ldreq	sl, [sp, #4]
   12e0c:	000a8008 	andeq	r8, sl, r8
   12e10:	01800008 	orreq	r0, r0, r8
   12e14:	e2833001 	add	r3, r3, #1
   12e18:	e1530006 	cmp	r3, r6
   12e1c:	0a000007 	beq	12e40 <BitGetUnsigned+0xd4>
   12e20:	e15c0005 	cmp	ip, r5
   12e24:	1affffef 	bne	12de8 <BitGetUnsigned+0x7c>
   12e28:	e7d70003 	ldrb	r0, [r7, r3]
   12e2c:	e2833001 	add	r3, r3, #1
   12e30:	e0090000 	and	r0, r9, r0
   12e34:	e1530006 	cmp	r3, r6
   12e38:	e1a00150 	asr	r0, r0, r1
   12e3c:	1afffff7 	bne	12e20 <BitGetUnsigned+0xb4>
   12e40:	e28dd008 	add	sp, sp, #8
   12e44:	e8bd0ff0 	pop	{r4, r5, r6, r7, r8, r9, sl, fp}
   12e48:	e12fff1e 	bx	lr
   12e4c:	e7d70003 	ldrb	r0, [r7, r3]
   12e50:	e00b0000 	and	r0, fp, r0
   12e54:	e1a00150 	asr	r0, r0, r1
   12e58:	e59da000 	ldr	sl, [sp]
   12e5c:	e084400a 	add	r4, r4, sl
   12e60:	e0648002 	rsb	r8, r4, r2
   12e64:	e1a00810 	lsl	r0, r0, r8
   12e68:	eaffffe9 	b	12e14 <BitGetUnsigned+0xa8>
   12e6c:	e3a00000 	mov	r0, #0
   12e70:	eafffff2 	b	12e40 <BitGetUnsigned+0xd4>

00012e74 <BitGetSigned>:
   12e74:	e92d4010 	push	{r4, lr}
   12e78:	e1a04002 	mov	r4, r2
   12e7c:	ebffffba 	bl	12d6c <BitGetUnsigned>
   12e80:	e3a03001 	mov	r3, #1
   12e84:	e2442001 	sub	r2, r4, #1
   12e88:	e0102213 	ands	r2, r0, r3, lsl r2
   12e8c:	11a03413 	lslne	r3, r3, r4
   12e90:	12633000 	rsbne	r3, r3, #0
   12e94:	11800003 	orrne	r0, r0, r3
   12e98:	e8bd4010 	pop	{r4, lr}
   12e9c:	e12fff1e 	bx	lr

00012ea0 <HidReadDevice>:
   12ea0:	e92d4ff0 	push	{r4, r5, r6, r7, r8, r9, sl, fp, lr}
   12ea4:	e5904404 	ldr	r4, [r0, #1028]	; 0x404
   12ea8:	e5d4200d 	ldrb	r2, [r4, #13]
   12eac:	e5d4300c 	ldrb	r3, [r4, #12]
   12eb0:	e1a05000 	mov	r5, r0
   12eb4:	e5d4000e 	ldrb	r0, [r4, #14]
   12eb8:	e1833402 	orr	r3, r3, r2, lsl #8
   12ebc:	e5d4200f 	ldrb	r2, [r4, #15]
   12ec0:	e1833800 	orr	r3, r3, r0, lsl #16
   12ec4:	e1833c02 	orr	r3, r3, r2, lsl #24
   12ec8:	e2811002 	add	r1, r1, #2
   12ecc:	e7938101 	ldr	r8, [r3, r1, lsl #2]
   12ed0:	e5d82008 	ldrb	r2, [r8, #8]
   12ed4:	e5d86004 	ldrb	r6, [r8, #4]
   12ed8:	e5981004 	ldr	r1, [r8, #4]
   12edc:	e1a02c02 	lsl	r2, r2, #24
   12ee0:	e2866007 	add	r6, r6, #7
   12ee4:	e192c421 	orrs	ip, r2, r1, lsr #8
   12ee8:	e24dd00c 	sub	sp, sp, #12
   12eec:	e1a061c6 	asr	r6, r6, #3
   12ef0:	0a000055 	beq	1304c <HidReadDevice+0x1ac>
   12ef4:	e5d81003 	ldrb	r1, [r8, #3]
   12ef8:	e5d82002 	ldrb	r2, [r8, #2]
   12efc:	e5d33005 	ldrb	r3, [r3, #5]
   12f00:	e1a00005 	mov	r0, r5
   12f04:	e88d1040 	stm	sp, {r6, ip}
   12f08:	ebfffef1 	bl	12ad4 <HidGetReport>
   12f0c:	e250b000 	subs	fp, r0, #0
   12f10:	1a00003c 	bne	13008 <HidReadDevice+0x168>
   12f14:	e5d82001 	ldrb	r2, [r8, #1]
   12f18:	e3520000 	cmp	r2, #0
   12f1c:	0a000039 	beq	13008 <HidReadDevice+0x168>
   12f20:	e1a0900b 	mov	r9, fp
   12f24:	e0893109 	add	r3, r9, r9, lsl #2
   12f28:	e0893083 	add	r3, r9, r3, lsl #1
   12f2c:	e0883103 	add	r3, r8, r3, lsl #2
   12f30:	e2833008 	add	r3, r3, #8
   12f34:	e2834004 	add	r4, r3, #4
   12f38:	e5d45004 	ldrb	r5, [r4, #4]
   12f3c:	e2155002 	ands	r5, r5, #2
   12f40:	1a000021 	bne	12fcc <HidReadDevice+0x12c>
   12f44:	e5d41002 	ldrb	r1, [r4, #2]
   12f48:	e3510000 	cmp	r1, #0
   12f4c:	15d36004 	ldrbne	r6, [r3, #4]
   12f50:	1a00000e 	bne	12f90 <HidReadDevice+0xf0>
   12f54:	ea000028 	b	12ffc <HidReadDevice+0x15c>
   12f58:	e1830420 	orr	r0, r3, r0, lsr #8
   12f5c:	e0871001 	add	r1, r7, r1
   12f60:	e1a02006 	mov	r2, r6
   12f64:	ebffff80 	bl	12d6c <BitGetUnsigned>
   12f68:	e1a03000 	mov	r3, r0
   12f6c:	e1a02006 	mov	r2, r6
   12f70:	e1a0000a 	mov	r0, sl
   12f74:	e1a01007 	mov	r1, r7
   12f78:	ebffff30 	bl	12c40 <BitSet>
   12f7c:	e5d43002 	ldrb	r3, [r4, #2]
   12f80:	e2855001 	add	r5, r5, #1
   12f84:	e1530005 	cmp	r3, r5
   12f88:	9a000023 	bls	1301c <HidReadDevice+0x17c>
   12f8c:	e5d46000 	ldrb	r6, [r4]
   12f90:	e5943010 	ldr	r3, [r4, #16]
   12f94:	e3530000 	cmp	r3, #0
   12f98:	e5d83008 	ldrb	r3, [r8, #8]
   12f9c:	e0070695 	mul	r7, r5, r6
   12fa0:	e594a028 	ldr	sl, [r4, #40]	; 0x28
   12fa4:	e5980004 	ldr	r0, [r8, #4]
   12fa8:	e5d41001 	ldrb	r1, [r4, #1]
   12fac:	e1a03c03 	lsl	r3, r3, #24
   12fb0:	aaffffe8 	bge	12f58 <HidReadDevice+0xb8>
   12fb4:	e1830420 	orr	r0, r3, r0, lsr #8
   12fb8:	e0871001 	add	r1, r7, r1
   12fbc:	e1a02006 	mov	r2, r6
   12fc0:	ebffffab 	bl	12e74 <BitGetSigned>
   12fc4:	e1a03000 	mov	r3, r0
   12fc8:	eaffffe7 	b	12f6c <HidReadDevice+0xcc>
   12fcc:	e5942010 	ldr	r2, [r4, #16]
   12fd0:	e3520000 	cmp	r2, #0
   12fd4:	e5d82008 	ldrb	r2, [r8, #8]
   12fd8:	e5980004 	ldr	r0, [r8, #4]
   12fdc:	e1a02c02 	lsl	r2, r2, #24
   12fe0:	e1820420 	orr	r0, r2, r0, lsr #8
   12fe4:	e5d41001 	ldrb	r1, [r4, #1]
   12fe8:	e5d32004 	ldrb	r2, [r3, #4]
   12fec:	ba00000f 	blt	13030 <HidReadDevice+0x190>
   12ff0:	ebffff5d 	bl	12d6c <BitGetUnsigned>
   12ff4:	e5840028 	str	r0, [r4, #40]	; 0x28
   12ff8:	e5d82001 	ldrb	r2, [r8, #1]
   12ffc:	e2899001 	add	r9, r9, #1
   13000:	e1520009 	cmp	r2, r9
   13004:	8affffc6 	bhi	12f24 <HidReadDevice+0x84>
   13008:	e1a00c0b 	lsl	r0, fp, #24
   1300c:	e1a00c40 	asr	r0, r0, #24
   13010:	e28dd00c 	add	sp, sp, #12
   13014:	e8bd4ff0 	pop	{r4, r5, r6, r7, r8, r9, sl, fp, lr}
   13018:	e12fff1e 	bx	lr
   1301c:	e5d82001 	ldrb	r2, [r8, #1]
   13020:	e2899001 	add	r9, r9, #1
   13024:	e1520009 	cmp	r2, r9
   13028:	8affffbd 	bhi	12f24 <HidReadDevice+0x84>
   1302c:	eafffff5 	b	13008 <HidReadDevice+0x168>
   13030:	ebffff8f 	bl	12e74 <BitGetSigned>
   13034:	e5840028 	str	r0, [r4, #40]	; 0x28
   13038:	e5d82001 	ldrb	r2, [r8, #1]
   1303c:	e2899001 	add	r9, r9, #1
   13040:	e1520009 	cmp	r2, r9
   13044:	8affffb6 	bhi	12f24 <HidReadDevice+0x84>
   13048:	eaffffee 	b	13008 <HidReadDevice+0x168>
   1304c:	e1a00006 	mov	r0, r6
   13050:	ebffe265 	bl	b9ec <MemoryAllocate>
   13054:	e5d82004 	ldrb	r2, [r8, #4]
   13058:	e1a03c20 	lsr	r3, r0, #24
   1305c:	e1822400 	orr	r2, r2, r0, lsl #8
   13060:	e3500000 	cmp	r0, #0
   13064:	e1a0c000 	mov	ip, r0
   13068:	e5882004 	str	r2, [r8, #4]
   1306c:	e5c83008 	strb	r3, [r8, #8]
   13070:	0a000007 	beq	13094 <HidReadDevice+0x1f4>
   13074:	e5d4200d 	ldrb	r2, [r4, #13]
   13078:	e5d4300c 	ldrb	r3, [r4, #12]
   1307c:	e5d4100e 	ldrb	r1, [r4, #14]
   13080:	e1833402 	orr	r3, r3, r2, lsl #8
   13084:	e5d4200f 	ldrb	r2, [r4, #15]
   13088:	e1833801 	orr	r3, r3, r1, lsl #16
   1308c:	e1833c02 	orr	r3, r3, r2, lsl #24
   13090:	eaffff97 	b	12ef4 <HidReadDevice+0x54>
   13094:	e3a0b0f9 	mov	fp, #249	; 0xf9
   13098:	eaffffda 	b	13008 <HidReadDevice+0x168>

0001309c <HidWriteDevice>:
   1309c:	e92d4ff0 	push	{r4, r5, r6, r7, r8, r9, sl, fp, lr}
   130a0:	e24dd014 	sub	sp, sp, #20
   130a4:	e58d0008 	str	r0, [sp, #8]
   130a8:	e590a404 	ldr	sl, [r0, #1028]	; 0x404
   130ac:	e5da200d 	ldrb	r2, [sl, #13]
   130b0:	e5da300c 	ldrb	r3, [sl, #12]
   130b4:	e5da000e 	ldrb	r0, [sl, #14]
   130b8:	e1833402 	orr	r3, r3, r2, lsl #8
   130bc:	e5da200f 	ldrb	r2, [sl, #15]
   130c0:	e1833800 	orr	r3, r3, r0, lsl #16
   130c4:	e1833c02 	orr	r3, r3, r2, lsl #24
   130c8:	e2811002 	add	r1, r1, #2
   130cc:	e7937101 	ldr	r7, [r3, r1, lsl #2]
   130d0:	e5d73008 	ldrb	r3, [r7, #8]
   130d4:	e5d7b004 	ldrb	fp, [r7, #4]
   130d8:	e597c004 	ldr	ip, [r7, #4]
   130dc:	e1a03c03 	lsl	r3, r3, #24
   130e0:	e28bb007 	add	fp, fp, #7
   130e4:	e1a0b1cb 	asr	fp, fp, #3
   130e8:	e193942c 	orrs	r9, r3, ip, lsr #8
   130ec:	e58db00c 	str	fp, [sp, #12]
   130f0:	0a000048 	beq	13218 <HidWriteDevice+0x17c>
   130f4:	e5d72001 	ldrb	r2, [r7, #1]
   130f8:	e3520000 	cmp	r2, #0
   130fc:	13a08000 	movne	r8, #0
   13100:	0a000025 	beq	1319c <HidWriteDevice+0x100>
   13104:	e0883108 	add	r3, r8, r8, lsl #2
   13108:	e0883083 	add	r3, r8, r3, lsl #1
   1310c:	e0873103 	add	r3, r7, r3, lsl #2
   13110:	e2833008 	add	r3, r3, #8
   13114:	e2834004 	add	r4, r3, #4
   13118:	e5d45004 	ldrb	r5, [r4, #4]
   1311c:	e2155002 	ands	r5, r5, #2
   13120:	1a000031 	bne	131ec <HidWriteDevice+0x150>
   13124:	e5d41002 	ldrb	r1, [r4, #2]
   13128:	e3510000 	cmp	r1, #0
   1312c:	15d36004 	ldrbne	r6, [r3, #4]
   13130:	1a000002 	bne	13140 <HidWriteDevice+0xa4>
   13134:	ea000015 	b	13190 <HidWriteDevice+0xf4>
   13138:	e5d46000 	ldrb	r6, [r4]
   1313c:	e18c9423 	orr	r9, ip, r3, lsr #8
   13140:	e0010596 	mul	r1, r6, r5
   13144:	e5d43001 	ldrb	r3, [r4, #1]
   13148:	e5940028 	ldr	r0, [r4, #40]	; 0x28
   1314c:	e1a02006 	mov	r2, r6
   13150:	e081b003 	add	fp, r1, r3
   13154:	ebffff46 	bl	12e74 <BitGetSigned>
   13158:	e1a0100b 	mov	r1, fp
   1315c:	e1a03000 	mov	r3, r0
   13160:	e1a02006 	mov	r2, r6
   13164:	e1a00009 	mov	r0, r9
   13168:	ebfffeb4 	bl	12c40 <BitSet>
   1316c:	e5d43002 	ldrb	r3, [r4, #2]
   13170:	e2855001 	add	r5, r5, #1
   13174:	e5d7c008 	ldrb	ip, [r7, #8]
   13178:	e1530005 	cmp	r3, r5
   1317c:	e1a0cc0c 	lsl	ip, ip, #24
   13180:	e5973004 	ldr	r3, [r7, #4]
   13184:	8affffeb 	bhi	13138 <HidWriteDevice+0x9c>
   13188:	e5d72001 	ldrb	r2, [r7, #1]
   1318c:	e18c9423 	orr	r9, ip, r3, lsr #8
   13190:	e2888001 	add	r8, r8, #1
   13194:	e1520008 	cmp	r2, r8
   13198:	8affffd9 	bhi	13104 <HidWriteDevice+0x68>
   1319c:	e5da000d 	ldrb	r0, [sl, #13]
   131a0:	e5da300c 	ldrb	r3, [sl, #12]
   131a4:	e5da100e 	ldrb	r1, [sl, #14]
   131a8:	e5da200f 	ldrb	r2, [sl, #15]
   131ac:	e1833400 	orr	r3, r3, r0, lsl #8
   131b0:	e28d0008 	add	r0, sp, #8
   131b4:	e1833801 	orr	r3, r3, r1, lsl #16
   131b8:	e8901001 	ldm	r0, {r0, ip}
   131bc:	e1833c02 	orr	r3, r3, r2, lsl #24
   131c0:	e5d71003 	ldrb	r1, [r7, #3]
   131c4:	e5d72002 	ldrb	r2, [r7, #2]
   131c8:	e5d33005 	ldrb	r3, [r3, #5]
   131cc:	e58dc000 	str	ip, [sp]
   131d0:	e58d9004 	str	r9, [sp, #4]
   131d4:	ebfffe6d 	bl	12b90 <HidSetReport>
   131d8:	e1a00c00 	lsl	r0, r0, #24
   131dc:	e1a00c40 	asr	r0, r0, #24
   131e0:	e28dd014 	add	sp, sp, #20
   131e4:	e8bd4ff0 	pop	{r4, r5, r6, r7, r8, r9, sl, fp, lr}
   131e8:	e12fff1e 	bx	lr
   131ec:	e5d32004 	ldrb	r2, [r3, #4]
   131f0:	e1a00009 	mov	r0, r9
   131f4:	e5943028 	ldr	r3, [r4, #40]	; 0x28
   131f8:	e5d41001 	ldrb	r1, [r4, #1]
   131fc:	ebfffe8f 	bl	12c40 <BitSet>
   13200:	e5d73008 	ldrb	r3, [r7, #8]
   13204:	e597c004 	ldr	ip, [r7, #4]
   13208:	e1a03c03 	lsl	r3, r3, #24
   1320c:	e183942c 	orr	r9, r3, ip, lsr #8
   13210:	e5d72001 	ldrb	r2, [r7, #1]
   13214:	eaffffdd 	b	13190 <HidWriteDevice+0xf4>
   13218:	e59d000c 	ldr	r0, [sp, #12]
   1321c:	ebffe1f2 	bl	b9ec <MemoryAllocate>
   13220:	e5d72004 	ldrb	r2, [r7, #4]
   13224:	e1a03c20 	lsr	r3, r0, #24
   13228:	e1822400 	orr	r2, r2, r0, lsl #8
   1322c:	e3500000 	cmp	r0, #0
   13230:	e1a09000 	mov	r9, r0
   13234:	e5872004 	str	r2, [r7, #4]
   13238:	e5c73008 	strb	r3, [r7, #8]
   1323c:	1affffac 	bne	130f4 <HidWriteDevice+0x58>
   13240:	e3a000f9 	mov	r0, #249	; 0xf9
   13244:	eaffffe3 	b	131d8 <HidWriteDevice+0x13c>

00013248 <HidSetProtocol>:
   13248:	e92d4030 	push	{r4, r5, lr}
   1324c:	e5d0301b 	ldrb	r3, [r0, #27]
   13250:	e20330ff 	and	r3, r3, #255	; 0xff
   13254:	e24dd01c 	sub	sp, sp, #28
   13258:	e3a0c000 	mov	ip, #0
   1325c:	e3530008 	cmp	r3, #8
   13260:	e1a0e001 	mov	lr, r1
   13264:	e1a04002 	mov	r4, r2
   13268:	e58dc00c 	str	ip, [sp, #12]
   1326c:	9a000005 	bls	13288 <HidSetProtocol+0x40>
   13270:	e3530010 	cmp	r3, #16
   13274:	93a0c001 	movls	ip, #1
   13278:	9a000002 	bls	13288 <HidSetProtocol+0x40>
   1327c:	e3530020 	cmp	r3, #32
   13280:	83a0c003 	movhi	ip, #3
   13284:	93a0c002 	movls	ip, #2
   13288:	e5dd200c 	ldrb	r2, [sp, #12]
   1328c:	e5d01004 	ldrb	r1, [r0, #4]
   13290:	e20220f0 	and	r2, r2, #240	; 0xf0
   13294:	e182300c 	orr	r3, r2, ip
   13298:	e2011003 	and	r1, r1, #3
   1329c:	e5d02000 	ldrb	r2, [r0]
   132a0:	e1833101 	orr	r3, r3, r1, lsl #2
   132a4:	e5cd300c 	strb	r3, [sp, #12]
   132a8:	e28d3010 	add	r3, sp, #16
   132ac:	e3a0c000 	mov	ip, #0
   132b0:	e5cd200d 	strb	r2, [sp, #13]
   132b4:	e58d3000 	str	r3, [sp]
   132b8:	e3a05021 	mov	r5, #33	; 0x21
   132bc:	e3a0300a 	mov	r3, #10
   132c0:	e58d3004 	str	r3, [sp, #4]
   132c4:	e5cd5010 	strb	r5, [sp, #16]
   132c8:	e1a0200c 	mov	r2, ip
   132cc:	e3a0500b 	mov	r5, #11
   132d0:	e59d100c 	ldr	r1, [sp, #12]
   132d4:	e1a0300c 	mov	r3, ip
   132d8:	e5cd5011 	strb	r5, [sp, #17]
   132dc:	e1cd41b2 	strh	r4, [sp, #18]
   132e0:	e1cde1b4 	strh	lr, [sp, #20]
   132e4:	e1cdc1b6 	strh	ip, [sp, #22]
   132e8:	ebfff673 	bl	10cbc <UsbControlMessage>
   132ec:	e28dd01c 	add	sp, sp, #28
   132f0:	e8bd4030 	pop	{r4, r5, lr}
   132f4:	e12fff1e 	bx	lr

000132f8 <HidEnumerateReport>:
   132f8:	e3510000 	cmp	r1, #0
   132fc:	e92d4ff8 	push	{r3, r4, r5, r6, r7, r8, r9, sl, fp, lr}
   13300:	e1a08002 	mov	r8, r2
   13304:	e1a0a003 	mov	sl, r3
   13308:	0a000030 	beq	133d0 <HidEnumerateReport+0xd8>
   1330c:	e2413001 	sub	r3, r1, #1
   13310:	e2802002 	add	r2, r0, #2
   13314:	e1a03803 	lsl	r3, r3, #16
   13318:	e2804001 	add	r4, r0, #1
   1331c:	e0829823 	add	r9, r2, r3, lsr #16
   13320:	e3a0c000 	mov	ip, #0
   13324:	ea00000a 	b	13354 <HidEnumerateReport+0x5c>
   13328:	e5541001 	ldrb	r1, [r4, #-1]
   1332c:	e1a02185 	lsl	r2, r5, #3
   13330:	e1866211 	orr	r6, r6, r1, lsl r2
   13334:	e2855001 	add	r5, r5, #1
   13338:	e1a05805 	lsl	r5, r5, #16
   1333c:	e1a05825 	lsr	r5, r5, #16
   13340:	e1550007 	cmp	r5, r7
   13344:	0a000014 	beq	1339c <HidEnumerateReport+0xa4>
   13348:	e2844001 	add	r4, r4, #1
   1334c:	e1540009 	cmp	r4, r9
   13350:	0a00001e 	beq	133d0 <HidEnumerateReport+0xd8>
   13354:	e35c0000 	cmp	ip, #0
   13358:	e2442001 	sub	r2, r4, #1
   1335c:	0a00001d 	beq	133d8 <HidEnumerateReport+0xe0>
   13360:	e5dc2000 	ldrb	r2, [ip]
   13364:	e20220fc 	and	r2, r2, #252	; 0xfc
   13368:	e35200fc 	cmp	r2, #252	; 0xfc
   1336c:	1affffed 	bne	13328 <HidEnumerateReport+0x30>
   13370:	e3550001 	cmp	r5, #1
   13374:	8affffeb 	bhi	13328 <HidEnumerateReport+0x30>
   13378:	e5542001 	ldrb	r2, [r4, #-1]
   1337c:	e3550000 	cmp	r5, #0
   13380:	00877002 	addeq	r7, r7, r2
   13384:	118bb402 	orrne	fp, fp, r2, lsl #8
   13388:	01a07807 	lsleq	r7, r7, #16
   1338c:	11a0b80b 	lslne	fp, fp, #16
   13390:	01a07827 	lsreq	r7, r7, #16
   13394:	11a0b82b 	lsrne	fp, fp, #16
   13398:	eaffffe5 	b	13334 <HidEnumerateReport+0x3c>
   1339c:	e20b2003 	and	r2, fp, #3
   133a0:	e3520001 	cmp	r2, #1
   133a4:	0a00001b 	beq	13418 <HidEnumerateReport+0x120>
   133a8:	e1a02006 	mov	r2, r6
   133ac:	e1a0000a 	mov	r0, sl
   133b0:	e1a0100b 	mov	r1, fp
   133b4:	e2844001 	add	r4, r4, #1
   133b8:	e1a0e00f 	mov	lr, pc
   133bc:	e12fff18 	bx	r8
   133c0:	e1540009 	cmp	r4, r9
   133c4:	e1a07005 	mov	r7, r5
   133c8:	e3a0c000 	mov	ip, #0
   133cc:	1affffe0 	bne	13354 <HidEnumerateReport+0x5c>
   133d0:	e8bd4ff8 	pop	{r3, r4, r5, r6, r7, r8, r9, sl, fp, lr}
   133d4:	e12fff1e 	bx	lr
   133d8:	e554b001 	ldrb	fp, [r4, #-1]
   133dc:	e20b7003 	and	r7, fp, #3
   133e0:	e2477001 	sub	r7, r7, #1
   133e4:	e3a03001 	mov	r3, #1
   133e8:	e1a07713 	lsl	r7, r3, r7
   133ec:	e1a07807 	lsl	r7, r7, #16
   133f0:	e1b07827 	lsrs	r7, r7, #16
   133f4:	e1a0b12b 	lsr	fp, fp, #2
   133f8:	13a06000 	movne	r6, #0
   133fc:	11a0c002 	movne	ip, r2
   13400:	11a05006 	movne	r5, r6
   13404:	1affffcf 	bne	13348 <HidEnumerateReport+0x50>
   13408:	e1a05007 	mov	r5, r7
   1340c:	e1a02007 	mov	r2, r7
   13410:	e1a06007 	mov	r6, r7
   13414:	eaffffe4 	b	133ac <HidEnumerateReport+0xb4>
   13418:	e3550001 	cmp	r5, #1
   1341c:	0a000005 	beq	13438 <HidEnumerateReport+0x140>
   13420:	e3550002 	cmp	r5, #2
   13424:	1affffdf 	bne	133a8 <HidEnumerateReport+0xb0>
   13428:	e3160902 	tst	r6, #32768	; 0x8000
   1342c:	11e06806 	mvnne	r6, r6, lsl #16
   13430:	11e06826 	mvnne	r6, r6, lsr #16
   13434:	eaffffdb 	b	133a8 <HidEnumerateReport+0xb0>
   13438:	e3160080 	tst	r6, #128	; 0x80
   1343c:	0affffd9 	beq	133a8 <HidEnumerateReport+0xb0>
   13440:	e1e06c06 	mvn	r6, r6, lsl #24
   13444:	e1e06c26 	mvn	r6, r6, lsr #24
   13448:	e1a02006 	mov	r2, r6
   1344c:	eaffffd6 	b	133ac <HidEnumerateReport+0xb4>

00013450 <HidParseReportDescriptor>:
   13450:	e92d4ff0 	push	{r4, r5, r6, r7, r8, r9, sl, fp, lr}
   13454:	e5900404 	ldr	r0, [r0, #1028]	; 0x404
   13458:	e24dd024 	sub	sp, sp, #36	; 0x24
   1345c:	e1a0a001 	mov	sl, r1
   13460:	e3a04000 	mov	r4, #0
   13464:	e1a01002 	mov	r1, r2
   13468:	e58d2008 	str	r2, [sp, #8]
   1346c:	e58d000c 	str	r0, [sp, #12]
   13470:	e59f22fc 	ldr	r2, [pc, #764]	; 13774 <HidParseReportDescriptor+0x324>
   13474:	e1a0000a 	mov	r0, sl
   13478:	e28d3018 	add	r3, sp, #24
   1347c:	e5cd4018 	strb	r4, [sp, #24]
   13480:	e5cd4019 	strb	r4, [sp, #25]
   13484:	e5cd401a 	strb	r4, [sp, #26]
   13488:	e5cd401b 	strb	r4, [sp, #27]
   1348c:	e5cd401c 	strb	r4, [sp, #28]
   13490:	ebffff98 	bl	132f8 <HidEnumerateReport>
   13494:	e5dd0018 	ldrb	r0, [sp, #24]
   13498:	e1a00100 	lsl	r0, r0, #2
   1349c:	e2800008 	add	r0, r0, #8
   134a0:	ebffe151 	bl	b9ec <MemoryAllocate>
   134a4:	e2506000 	subs	r6, r0, #0
   134a8:	0a000046 	beq	135c8 <HidParseReportDescriptor+0x178>
   134ac:	e5dd1018 	ldrb	r1, [sp, #24]
   134b0:	e1510004 	cmp	r1, r4
   134b4:	0a000007 	beq	134d8 <HidParseReportDescriptor+0x88>
   134b8:	e1a03004 	mov	r3, r4
   134bc:	e1a02006 	mov	r2, r6
   134c0:	e1a00004 	mov	r0, r4
   134c4:	e2833001 	add	r3, r3, #1
   134c8:	e1530001 	cmp	r3, r1
   134cc:	e5820008 	str	r0, [r2, #8]
   134d0:	e2822004 	add	r2, r2, #4
   134d4:	3afffffa 	bcc	134c4 <HidParseReportDescriptor+0x74>
   134d8:	e0810081 	add	r0, r1, r1, lsl #1
   134dc:	e2800006 	add	r0, r0, #6
   134e0:	ebffe141 	bl	b9ec <MemoryAllocate>
   134e4:	e2505000 	subs	r5, r0, #0
   134e8:	0a000036 	beq	135c8 <HidParseReportDescriptor+0x178>
   134ec:	e5dd3018 	ldrb	r3, [sp, #24]
   134f0:	e3a04000 	mov	r4, #0
   134f4:	e5c63004 	strb	r3, [r6, #4]
   134f8:	e5c54000 	strb	r4, [r5]
   134fc:	e5c54001 	strb	r4, [r5, #1]
   13500:	e5c54002 	strb	r4, [r5, #2]
   13504:	e5c54003 	strb	r4, [r5, #3]
   13508:	e1a03005 	mov	r3, r5
   1350c:	e1a0000a 	mov	r0, sl
   13510:	e5c54004 	strb	r4, [r5, #4]
   13514:	e5c54005 	strb	r4, [r5, #5]
   13518:	e59d1008 	ldr	r1, [sp, #8]
   1351c:	e59f2254 	ldr	r2, [pc, #596]	; 13778 <HidParseReportDescriptor+0x328>
   13520:	ebffff74 	bl	132f8 <HidEnumerateReport>
   13524:	e5dd3018 	ldrb	r3, [sp, #24]
   13528:	e1530004 	cmp	r3, r4
   1352c:	0a00003d 	beq	13628 <HidParseReportDescriptor+0x1d8>
   13530:	e1a08004 	mov	r8, r4
   13534:	e1a0b008 	mov	fp, r8
   13538:	e1a04006 	mov	r4, r6
   1353c:	e1a09008 	mov	r9, r8
   13540:	ea000013 	b	13594 <HidParseReportDescriptor+0x144>
   13544:	e5c0b000 	strb	fp, [r0]
   13548:	e5942008 	ldr	r2, [r4, #8]
   1354c:	e5c29001 	strb	r9, [r2, #1]
   13550:	e5942008 	ldr	r2, [r4, #8]
   13554:	e5d70006 	ldrb	r0, [r7, #6]
   13558:	e5c20002 	strb	r0, [r2, #2]
   1355c:	e5942008 	ldr	r2, [r4, #8]
   13560:	e5d70008 	ldrb	r0, [r7, #8]
   13564:	e5c29004 	strb	r9, [r2, #4]
   13568:	e5c20003 	strb	r0, [r2, #3]
   1356c:	e5942008 	ldr	r2, [r4, #8]
   13570:	e5d20004 	ldrb	r0, [r2, #4]
   13574:	e5c29008 	strb	r9, [r2, #8]
   13578:	e5820004 	str	r0, [r2, #4]
   1357c:	e5dd2018 	ldrb	r2, [sp, #24]
   13580:	e28bb001 	add	fp, fp, #1
   13584:	e152000b 	cmp	r2, fp
   13588:	e2888003 	add	r8, r8, #3
   1358c:	e2844004 	add	r4, r4, #4
   13590:	9a000024 	bls	13628 <HidParseReportDescriptor+0x1d8>
   13594:	e0857008 	add	r7, r5, r8
   13598:	e5d72007 	ldrb	r2, [r7, #7]
   1359c:	e0820102 	add	r0, r2, r2, lsl #2
   135a0:	e0822080 	add	r2, r2, r0, lsl #1
   135a4:	e1a00102 	lsl	r0, r2, #2
   135a8:	e280000c 	add	r0, r0, #12
   135ac:	ebffe10e 	bl	b9ec <MemoryAllocate>
   135b0:	e3500000 	cmp	r0, #0
   135b4:	e5840008 	str	r0, [r4, #8]
   135b8:	1affffe1 	bne	13544 <HidParseReportDescriptor+0xf4>
   135bc:	e3550000 	cmp	r5, #0
   135c0:	11a00005 	movne	r0, r5
   135c4:	1bffe21c 	blne	be3c <MemoryDeallocate>
   135c8:	e3a070f9 	mov	r7, #249	; 0xf9
   135cc:	e3560000 	cmp	r6, #0
   135d0:	0a00000f 	beq	13614 <HidParseReportDescriptor+0x1c4>
   135d4:	e5dd3018 	ldrb	r3, [sp, #24]
   135d8:	e3530000 	cmp	r3, #0
   135dc:	0a00000a 	beq	1360c <HidParseReportDescriptor+0x1bc>
   135e0:	e1a05006 	mov	r5, r6
   135e4:	e3a04000 	mov	r4, #0
   135e8:	e5950008 	ldr	r0, [r5, #8]
   135ec:	e3500000 	cmp	r0, #0
   135f0:	e2844001 	add	r4, r4, #1
   135f4:	0a000001 	beq	13600 <HidParseReportDescriptor+0x1b0>
   135f8:	ebffe20f 	bl	be3c <MemoryDeallocate>
   135fc:	e5dd3018 	ldrb	r3, [sp, #24]
   13600:	e1530004 	cmp	r3, r4
   13604:	e2855004 	add	r5, r5, #4
   13608:	8afffff6 	bhi	135e8 <HidParseReportDescriptor+0x198>
   1360c:	e1a00006 	mov	r0, r6
   13610:	ebffe209 	bl	be3c <MemoryDeallocate>
   13614:	e1a00c07 	lsl	r0, r7, #24
   13618:	e1a00c40 	asr	r0, r0, #24
   1361c:	e28dd024 	add	sp, sp, #36	; 0x24
   13620:	e8bd4ff0 	pop	{r4, r5, r6, r7, r8, r9, sl, fp, lr}
   13624:	e12fff1e 	bx	lr
   13628:	e1a00005 	mov	r0, r5
   1362c:	ebffe202 	bl	be3c <MemoryDeallocate>
   13630:	e3a0002f 	mov	r0, #47	; 0x2f
   13634:	ebffe0ec 	bl	b9ec <MemoryAllocate>
   13638:	e2504000 	subs	r4, r0, #0
   1363c:	0affffe1 	beq	135c8 <HidParseReportDescriptor+0x178>
   13640:	e3a00040 	mov	r0, #64	; 0x40
   13644:	ebffe0e8 	bl	b9ec <MemoryAllocate>
   13648:	e1a01420 	lsr	r1, r0, #8
   1364c:	e1a02820 	lsr	r2, r0, #16
   13650:	e1a03c20 	lsr	r3, r0, #24
   13654:	e3500000 	cmp	r0, #0
   13658:	e1a07000 	mov	r7, r0
   1365c:	e3a05000 	mov	r5, #0
   13660:	e5c4000c 	strb	r0, [r4, #12]
   13664:	e5c4100d 	strb	r1, [r4, #13]
   13668:	e5c4200e 	strb	r2, [r4, #14]
   1366c:	e5c4300f 	strb	r3, [r4, #15]
   13670:	0a00003d 	beq	1376c <HidParseReportDescriptor+0x31c>
   13674:	e1a03826 	lsr	r3, r6, #16
   13678:	e206c0ff 	and	ip, r6, #255	; 0xff
   1367c:	e1a0b426 	lsr	fp, r6, #8
   13680:	e20330ff 	and	r3, r3, #255	; 0xff
   13684:	e1a06c26 	lsr	r6, r6, #24
   13688:	e58d3010 	str	r3, [sp, #16]
   1368c:	e58d6014 	str	r6, [sp, #20]
   13690:	e20bb0ff 	and	fp, fp, #255	; 0xff
   13694:	e5c45004 	strb	r5, [r4, #4]
   13698:	e5c45005 	strb	r5, [r4, #5]
   1369c:	e5c45006 	strb	r5, [r4, #6]
   136a0:	e5c45007 	strb	r5, [r4, #7]
   136a4:	e5c45018 	strb	r5, [r4, #24]
   136a8:	e5c45019 	strb	r5, [r4, #25]
   136ac:	e5c4501a 	strb	r5, [r4, #26]
   136b0:	e5c4501b 	strb	r5, [r4, #27]
   136b4:	e5c45014 	strb	r5, [r4, #20]
   136b8:	e5c45015 	strb	r5, [r4, #21]
   136bc:	e5c45016 	strb	r5, [r4, #22]
   136c0:	e5c45017 	strb	r5, [r4, #23]
   136c4:	e5c45020 	strb	r5, [r4, #32]
   136c8:	e5c45021 	strb	r5, [r4, #33]	; 0x21
   136cc:	e5c45022 	strb	r5, [r4, #34]	; 0x22
   136d0:	e5c45023 	strb	r5, [r4, #35]	; 0x23
   136d4:	e5c4501c 	strb	r5, [r4, #28]
   136d8:	e5c4501d 	strb	r5, [r4, #29]
   136dc:	e5c4501e 	strb	r5, [r4, #30]
   136e0:	e5c4501f 	strb	r5, [r4, #31]
   136e4:	e5c45008 	strb	r5, [r4, #8]
   136e8:	e5c45009 	strb	r5, [r4, #9]
   136ec:	e5c4500a 	strb	r5, [r4, #10]
   136f0:	e5c4500b 	strb	r5, [r4, #11]
   136f4:	e3e03000 	mvn	r3, #0
   136f8:	e59d1008 	ldr	r1, [sp, #8]
   136fc:	e5c4502e 	strb	r5, [r4, #46]	; 0x2e
   13700:	e5873000 	str	r3, [r7]
   13704:	e5c4c000 	strb	ip, [r4]
   13708:	e5c4b001 	strb	fp, [r4, #1]
   1370c:	e59de010 	ldr	lr, [sp, #16]
   13710:	e5c4e002 	strb	lr, [r4, #2]
   13714:	e59de014 	ldr	lr, [sp, #20]
   13718:	e1a0000a 	mov	r0, sl
   1371c:	e59f2058 	ldr	r2, [pc, #88]	; 1377c <HidParseReportDescriptor+0x32c>
   13720:	e1a03004 	mov	r3, r4
   13724:	e5c4e003 	strb	lr, [r4, #3]
   13728:	e58dc004 	str	ip, [sp, #4]
   1372c:	ebfffef1 	bl	132f8 <HidEnumerateReport>
   13730:	e59dc004 	ldr	ip, [sp, #4]
   13734:	e59d200c 	ldr	r2, [sp, #12]
   13738:	e5c2c00c 	strb	ip, [r2, #12]
   1373c:	e5c2b00d 	strb	fp, [r2, #13]
   13740:	e59d3010 	ldr	r3, [sp, #16]
   13744:	e5c2300e 	strb	r3, [r2, #14]
   13748:	e59de014 	ldr	lr, [sp, #20]
   1374c:	e1a00007 	mov	r0, r7
   13750:	e5c2e00f 	strb	lr, [r2, #15]
   13754:	ebffe1b8 	bl	be3c <MemoryDeallocate>
   13758:	e1a06005 	mov	r6, r5
   1375c:	e1a07005 	mov	r7, r5
   13760:	e1a00004 	mov	r0, r4
   13764:	ebffe1b4 	bl	be3c <MemoryDeallocate>
   13768:	eaffff97 	b	135cc <HidParseReportDescriptor+0x17c>
   1376c:	e3a070f9 	mov	r7, #249	; 0xf9
   13770:	eafffffa 	b	13760 <HidParseReportDescriptor+0x310>
   13774:	00012a1c 	.word	0x00012a1c
   13778:	00011f5c 	.word	0x00011f5c
   1377c:	000120c0 	.word	0x000120c0

00013780 <HidScan>:
   13780:	e92d45f0 	push	{r4, r5, r6, r7, r8, sl, lr}
   13784:	e1a02181 	lsl	r2, r1, #3
   13788:	e0823001 	add	r3, r2, r1
   1378c:	e0803003 	add	r3, r0, r3
   13790:	e2833030 	add	r3, r3, #48	; 0x30
   13794:	e1a05001 	mov	r5, r1
   13798:	e5d31009 	ldrb	r1, [r3, #9]
   1379c:	e3510003 	cmp	r1, #3
   137a0:	e24dd014 	sub	sp, sp, #20
   137a4:	e1a06000 	mov	r6, r0
   137a8:	1a00008f 	bne	139ec <HidScan+0x26c>
   137ac:	e5d31008 	ldrb	r1, [r3, #8]
   137b0:	e3510000 	cmp	r1, #0
   137b4:	0a00002e 	beq	13874 <HidScan+0xf4>
   137b8:	e0650002 	rsb	r0, r5, r2
   137bc:	e0860200 	add	r0, r6, r0, lsl #4
   137c0:	e5d0c07e 	ldrb	ip, [r0, #126]	; 0x7e
   137c4:	e1b0c3ac 	lsrs	ip, ip, #7
   137c8:	0a000029 	beq	13874 <HidScan+0xf4>
   137cc:	e5d0107f 	ldrb	r1, [r0, #127]	; 0x7f
   137d0:	e2011003 	and	r1, r1, #3
   137d4:	e3510003 	cmp	r1, #3
   137d8:	1a000025 	bne	13874 <HidScan+0xf4>
   137dc:	e5d33008 	ldrb	r3, [r3, #8]
   137e0:	e3530001 	cmp	r3, #1
   137e4:	9a000007 	bls	13808 <HidScan+0x88>
   137e8:	e5d03085 	ldrb	r3, [r0, #133]	; 0x85
   137ec:	e1b033a3 	lsrs	r3, r3, #7
   137f0:	e280007f 	add	r0, r0, #127	; 0x7f
   137f4:	1a00001e 	bne	13874 <HidScan+0xf4>
   137f8:	e5d03007 	ldrb	r3, [r0, #7]
   137fc:	e2033003 	and	r3, r3, #3
   13800:	e3530003 	cmp	r3, #3
   13804:	1a00001a 	bne	13874 <HidScan+0xf4>
   13808:	e5d63005 	ldrb	r3, [r6, #5]
   1380c:	e3530004 	cmp	r3, #4
   13810:	1a000077 	bne	139f4 <HidScan+0x274>
   13814:	e0822005 	add	r2, r2, r5
   13818:	e0862002 	add	r2, r6, r2
   1381c:	e2822030 	add	r2, r2, #48	; 0x30
   13820:	e5d2300a 	ldrb	r3, [r2, #10]
   13824:	e3530001 	cmp	r3, #1
   13828:	0a000062 	beq	139b8 <HidScan+0x238>
   1382c:	e5964400 	ldr	r4, [r6, #1024]	; 0x400
   13830:	e5d42000 	ldrb	r2, [r4]
   13834:	e3520000 	cmp	r2, #0
   13838:	e2857001 	add	r7, r5, #1
   1383c:	1a000005 	bne	13858 <HidScan+0xd8>
   13840:	ea00000b 	b	13874 <HidScan+0xf4>
   13844:	e3530021 	cmp	r3, #33	; 0x21
   13848:	0a00000f 	beq	1388c <HidScan+0x10c>
   1384c:	e7f42002 	ldrb	r2, [r4, r2]!
   13850:	e3520000 	cmp	r2, #0
   13854:	0a000006 	beq	13874 <HidScan+0xf4>
   13858:	e5d43001 	ldrb	r3, [r4, #1]
   1385c:	e3530004 	cmp	r3, #4
   13860:	1afffff7 	bne	13844 <HidScan+0xc4>
   13864:	e5d47002 	ldrb	r7, [r4, #2]
   13868:	e7f42002 	ldrb	r2, [r4, r2]!
   1386c:	e3520000 	cmp	r2, #0
   13870:	1afffff8 	bne	13858 <HidScan+0xd8>
   13874:	e3a080fb 	mov	r8, #251	; 0xfb
   13878:	e1a00c08 	lsl	r0, r8, #24
   1387c:	e1a00c40 	asr	r0, r0, #24
   13880:	e28dd014 	add	sp, sp, #20
   13884:	e8bd45f0 	pop	{r4, r5, r6, r7, r8, sl, lr}
   13888:	e12fff1e 	bx	lr
   1388c:	e1570005 	cmp	r7, r5
   13890:	1affffed 	bne	1384c <HidScan+0xcc>
   13894:	e5d43002 	ldrb	r3, [r4, #2]
   13898:	e5d42003 	ldrb	r2, [r4, #3]
   1389c:	e1832402 	orr	r2, r3, r2, lsl #8
   138a0:	e59f31b4 	ldr	r3, [pc, #436]	; 13a5c <HidScan+0x2dc>
   138a4:	e1520003 	cmp	r2, r3
   138a8:	8afffff1 	bhi	13874 <HidScan+0xf4>
   138ac:	e59f31ac 	ldr	r3, [pc, #428]	; 13a60 <HidScan+0x2e0>
   138b0:	e5863010 	str	r3, [r6, #16]
   138b4:	e59f31a8 	ldr	r3, [pc, #424]	; 13a64 <HidScan+0x2e4>
   138b8:	e3a0001c 	mov	r0, #28
   138bc:	e586300c 	str	r3, [r6, #12]
   138c0:	ebffe049 	bl	b9ec <MemoryAllocate>
   138c4:	e3500000 	cmp	r0, #0
   138c8:	e1a05000 	mov	r5, r0
   138cc:	e5860404 	str	r0, [r6, #1028]	; 0x404
   138d0:	0a000034 	beq	139a8 <HidScan+0x228>
   138d4:	e5903004 	ldr	r3, [r0, #4]
   138d8:	e3a0301c 	mov	r3, #28
   138dc:	e5803004 	str	r3, [r0, #4]
   138e0:	e1a03c24 	lsr	r3, r4, #24
   138e4:	e5c0300b 	strb	r3, [r0, #11]
   138e8:	e5903000 	ldr	r3, [r0]
   138ec:	e59f3174 	ldr	r3, [pc, #372]	; 13a68 <HidScan+0x2e8>
   138f0:	e3a08000 	mov	r8, #0
   138f4:	e1a01424 	lsr	r1, r4, #8
   138f8:	e1a02824 	lsr	r2, r4, #16
   138fc:	e5c04008 	strb	r4, [r0, #8]
   13900:	e5c01009 	strb	r1, [r0, #9]
   13904:	e5c0200a 	strb	r2, [r0, #10]
   13908:	e5c08010 	strb	r8, [r0, #16]
   1390c:	e5c08011 	strb	r8, [r0, #17]
   13910:	e5c08012 	strb	r8, [r0, #18]
   13914:	e5c08013 	strb	r8, [r0, #19]
   13918:	e5803000 	str	r3, [r0]
   1391c:	e5d43007 	ldrb	r3, [r4, #7]
   13920:	e5d40008 	ldrb	r0, [r4, #8]
   13924:	e1830400 	orr	r0, r3, r0, lsl #8
   13928:	ebffe02f 	bl	b9ec <MemoryAllocate>
   1392c:	e250a000 	subs	sl, r0, #0
   13930:	0a00001c 	beq	139a8 <HidScan+0x228>
   13934:	e5d41008 	ldrb	r1, [r4, #8]
   13938:	e5d42007 	ldrb	r2, [r4, #7]
   1393c:	e1822401 	orr	r2, r2, r1, lsl #8
   13940:	e58d2004 	str	r2, [sp, #4]
   13944:	e58d2008 	str	r2, [sp, #8]
   13948:	e1a03807 	lsl	r3, r7, #16
   1394c:	e3a02001 	mov	r2, #1
   13950:	e58d200c 	str	r2, [sp, #12]
   13954:	e58da000 	str	sl, [sp]
   13958:	e1a02008 	mov	r2, r8
   1395c:	e1a00006 	mov	r0, r6
   13960:	e3a01022 	mov	r1, #34	; 0x22
   13964:	e1a03823 	lsr	r3, r3, #16
   13968:	ebfff511 	bl	10db4 <UsbGetDescriptor>
   1396c:	e2508000 	subs	r8, r0, #0
   13970:	1a00001a 	bne	139e0 <HidScan+0x260>
   13974:	e5d43007 	ldrb	r3, [r4, #7]
   13978:	e5d42008 	ldrb	r2, [r4, #8]
   1397c:	e1a00006 	mov	r0, r6
   13980:	e1a0100a 	mov	r1, sl
   13984:	e1832402 	orr	r2, r3, r2, lsl #8
   13988:	ebfffeb0 	bl	13450 <HidParseReportDescriptor>
   1398c:	e2508000 	subs	r8, r0, #0
   13990:	e1a0000a 	mov	r0, sl
   13994:	0a000018 	beq	139fc <HidScan+0x27c>
   13998:	ebffe127 	bl	be3c <MemoryDeallocate>
   1399c:	e1a0000a 	mov	r0, sl
   139a0:	ebffe125 	bl	be3c <MemoryDeallocate>
   139a4:	ea000000 	b	139ac <HidScan+0x22c>
   139a8:	e3a080f9 	mov	r8, #249	; 0xf9
   139ac:	e1a00006 	mov	r0, r6
   139b0:	ebfffbc4 	bl	128c8 <HidDeallocate>
   139b4:	eaffffaf 	b	13878 <HidScan+0xf8>
   139b8:	e5d2300b 	ldrb	r3, [r2, #11]
   139bc:	e3530001 	cmp	r3, #1
   139c0:	15d2300b 	ldrbne	r3, [r2, #11]
   139c4:	e20510ff 	and	r1, r5, #255	; 0xff
   139c8:	e1a00006 	mov	r0, r6
   139cc:	e3a02001 	mov	r2, #1
   139d0:	ebfffe1c 	bl	13248 <HidSetProtocol>
   139d4:	e2508000 	subs	r8, r0, #0
   139d8:	0affff93 	beq	1382c <HidScan+0xac>
   139dc:	eaffffa5 	b	13878 <HidScan+0xf8>
   139e0:	e1a0000a 	mov	r0, sl
   139e4:	ebffe114 	bl	be3c <MemoryDeallocate>
   139e8:	eaffffeb 	b	1399c <HidScan+0x21c>
   139ec:	e3a080fe 	mov	r8, #254	; 0xfe
   139f0:	eaffffa0 	b	13878 <HidScan+0xf8>
   139f4:	e3a080fc 	mov	r8, #252	; 0xfc
   139f8:	eaffff9e 	b	13878 <HidScan+0xf8>
   139fc:	ebffe10e 	bl	be3c <MemoryDeallocate>
   13a00:	e5d5300c 	ldrb	r3, [r5, #12]
   13a04:	e5d5000d 	ldrb	r0, [r5, #13]
   13a08:	e5d5100e 	ldrb	r1, [r5, #14]
   13a0c:	e5d5200f 	ldrb	r2, [r5, #15]
   13a10:	e1833400 	orr	r3, r3, r0, lsl #8
   13a14:	e1833801 	orr	r3, r3, r1, lsl #16
   13a18:	e1833c02 	orr	r3, r3, r2, lsl #24
   13a1c:	e5c37005 	strb	r7, [r3, #5]
   13a20:	e5d5200d 	ldrb	r2, [r5, #13]
   13a24:	e5d5300c 	ldrb	r3, [r5, #12]
   13a28:	e5d5100e 	ldrb	r1, [r5, #14]
   13a2c:	e1833402 	orr	r3, r3, r2, lsl #8
   13a30:	e5d5200f 	ldrb	r2, [r5, #15]
   13a34:	e1833801 	orr	r3, r3, r1, lsl #16
   13a38:	e1833c02 	orr	r3, r3, r2, lsl #24
   13a3c:	e5932000 	ldr	r2, [r3]
   13a40:	e59f3024 	ldr	r3, [pc, #36]	; 13a6c <HidScan+0x2ec>
   13a44:	e1520003 	cmp	r2, r3
   13a48:	1affff8a 	bne	13878 <HidScan+0xf8>
   13a4c:	e1a00006 	mov	r0, r6
   13a50:	e1a01007 	mov	r1, r7
   13a54:	ebffdc2d 	bl	ab10 <KeyboardScan>
   13a58:	eaffff86 	b	13878 <HidScan+0xf8>
   13a5c:	00000111 	.word	0x00000111
   13a60:	000128c8 	.word	0x000128c8
   13a64:	00012084 	.word	0x00012084
   13a68:	48494430 	.word	0x48494430
   13a6c:	00010006 	.word	0x00010006

00013a70 <HidGetFieldValue>:
   13a70:	e5d02000 	ldrb	r2, [r0]
   13a74:	e0010192 	mul	r1, r2, r1
   13a78:	e5900028 	ldr	r0, [r0, #40]	; 0x28
   13a7c:	eafffcfc 	b	12e74 <BitGetSigned>
   13a80:	00003141 	.word	0x00003141
   13a84:	61656100 	.word	0x61656100
   13a88:	01006962 	.word	0x01006962
   13a8c:	00000027 	.word	0x00000027
   13a90:	4d524105 	.word	0x4d524105
   13a94:	4d445437 	.word	0x4d445437
   13a98:	02060049 	.word	0x02060049
   13a9c:	01090108 	.word	0x01090108
   13aa0:	01140212 	.word	0x01140212
   13aa4:	03170115 	.word	0x03170115
   13aa8:	01190118 	.word	0x01190118
   13aac:	021e011a 	.word	0x021e011a
   13ab0:	0000012c 	.word	0x0000012c

00013ab4 <HubDetached>:
   13ab4:	e92d41f0 	push	{r4, r5, r6, r7, r8, lr}
   13ab8:	e5905404 	ldr	r5, [r0, #1028]	; 0x404
   13abc:	e3550000 	cmp	r5, #0
   13ac0:	0a000021 	beq	13b4c <HubDetached+0x98>
   13ac4:	e5d52010 	ldrb	r2, [r5, #16]
   13ac8:	e5d51011 	ldrb	r1, [r5, #17]
   13acc:	e5d5c012 	ldrb	ip, [r5, #18]
   13ad0:	e1823401 	orr	r3, r2, r1, lsl #8
   13ad4:	e5d56013 	ldrb	r6, [r5, #19]
   13ad8:	e183380c 	orr	r3, r3, ip, lsl #16
   13adc:	e1933c06 	orrs	r3, r3, r6, lsl #24
   13ae0:	0a000019 	beq	13b4c <HubDetached+0x98>
   13ae4:	e3a04000 	mov	r4, #0
   13ae8:	e284300e 	add	r3, r4, #14
   13aec:	e0853103 	add	r3, r5, r3, lsl #2
   13af0:	e5d30004 	ldrb	r0, [r3, #4]
   13af4:	e5d37005 	ldrb	r7, [r3, #5]
   13af8:	e5d38006 	ldrb	r8, [r3, #6]
   13afc:	e1807407 	orr	r7, r0, r7, lsl #8
   13b00:	e5d30007 	ldrb	r0, [r3, #7]
   13b04:	e1873808 	orr	r3, r7, r8, lsl #16
   13b08:	e1930c00 	orrs	r0, r3, r0, lsl #24
   13b0c:	e2844001 	add	r4, r4, #1
   13b10:	0a000008 	beq	13b38 <HubDetached+0x84>
   13b14:	e590300c 	ldr	r3, [r0, #12]
   13b18:	e3530000 	cmp	r3, #0
   13b1c:	0a000005 	beq	13b38 <HubDetached+0x84>
   13b20:	e1a0e00f 	mov	lr, pc
   13b24:	e12fff13 	bx	r3
   13b28:	e5d52010 	ldrb	r2, [r5, #16]
   13b2c:	e5d51011 	ldrb	r1, [r5, #17]
   13b30:	e5d5c012 	ldrb	ip, [r5, #18]
   13b34:	e5d56013 	ldrb	r6, [r5, #19]
   13b38:	e1823401 	orr	r3, r2, r1, lsl #8
   13b3c:	e183380c 	orr	r3, r3, ip, lsl #16
   13b40:	e1833c06 	orr	r3, r3, r6, lsl #24
   13b44:	e1530004 	cmp	r3, r4
   13b48:	8affffe6 	bhi	13ae8 <HubDetached+0x34>
   13b4c:	e8bd41f0 	pop	{r4, r5, r6, r7, r8, lr}
   13b50:	e12fff1e 	bx	lr

00013b54 <HubDeallocate>:
   13b54:	e92d45f8 	push	{r3, r4, r5, r6, r7, r8, sl, lr}
   13b58:	e5905404 	ldr	r5, [r0, #1028]	; 0x404
   13b5c:	e3550000 	cmp	r5, #0
   13b60:	e1a08000 	mov	r8, r0
   13b64:	0a00002c 	beq	13c1c <HubDeallocate+0xc8>
   13b68:	e5d51010 	ldrb	r1, [r5, #16]
   13b6c:	e5d5c011 	ldrb	ip, [r5, #17]
   13b70:	e5d5e012 	ldrb	lr, [r5, #18]
   13b74:	e181340c 	orr	r3, r1, ip, lsl #8
   13b78:	e5d5a013 	ldrb	sl, [r5, #19]
   13b7c:	e183380e 	orr	r3, r3, lr, lsl #16
   13b80:	e1933c0a 	orrs	r3, r3, sl, lsl #24
   13b84:	13a06000 	movne	r6, #0
   13b88:	11a07006 	movne	r7, r6
   13b8c:	0a000018 	beq	13bf4 <HubDeallocate+0xa0>
   13b90:	e286400e 	add	r4, r6, #14
   13b94:	e0854104 	add	r4, r5, r4, lsl #2
   13b98:	e5d42005 	ldrb	r2, [r4, #5]
   13b9c:	e5d43004 	ldrb	r3, [r4, #4]
   13ba0:	e5d40006 	ldrb	r0, [r4, #6]
   13ba4:	e1833402 	orr	r3, r3, r2, lsl #8
   13ba8:	e5d42007 	ldrb	r2, [r4, #7]
   13bac:	e1833800 	orr	r3, r3, r0, lsl #16
   13bb0:	e1930c02 	orrs	r0, r3, r2, lsl #24
   13bb4:	e2866001 	add	r6, r6, #1
   13bb8:	0a000008 	beq	13be0 <HubDeallocate+0x8c>
   13bbc:	ebfff7c9 	bl	11ae8 <UsbDeallocateDevice>
   13bc0:	e5c47004 	strb	r7, [r4, #4]
   13bc4:	e5c47005 	strb	r7, [r4, #5]
   13bc8:	e5c47006 	strb	r7, [r4, #6]
   13bcc:	e5c47007 	strb	r7, [r4, #7]
   13bd0:	e5d51010 	ldrb	r1, [r5, #16]
   13bd4:	e5d5c011 	ldrb	ip, [r5, #17]
   13bd8:	e5d5e012 	ldrb	lr, [r5, #18]
   13bdc:	e5d5a013 	ldrb	sl, [r5, #19]
   13be0:	e181340c 	orr	r3, r1, ip, lsl #8
   13be4:	e183380e 	orr	r3, r3, lr, lsl #16
   13be8:	e1833c0a 	orr	r3, r3, sl, lsl #24
   13bec:	e1530006 	cmp	r3, r6
   13bf0:	8affffe6 	bhi	13b90 <HubDeallocate+0x3c>
   13bf4:	e5d5300c 	ldrb	r3, [r5, #12]
   13bf8:	e5d5100d 	ldrb	r1, [r5, #13]
   13bfc:	e5d5200e 	ldrb	r2, [r5, #14]
   13c00:	e1833401 	orr	r3, r3, r1, lsl #8
   13c04:	e5d5000f 	ldrb	r0, [r5, #15]
   13c08:	e1833802 	orr	r3, r3, r2, lsl #16
   13c0c:	e1930c00 	orrs	r0, r3, r0, lsl #24
   13c10:	1bffe089 	blne	be3c <MemoryDeallocate>
   13c14:	e5980404 	ldr	r0, [r8, #1028]	; 0x404
   13c18:	ebffe087 	bl	be3c <MemoryDeallocate>
   13c1c:	e3a03000 	mov	r3, #0
   13c20:	e5883010 	str	r3, [r8, #16]
   13c24:	e588300c 	str	r3, [r8, #12]
   13c28:	e8bd45f8 	pop	{r3, r4, r5, r6, r7, r8, sl, lr}
   13c2c:	e12fff1e 	bx	lr

00013c30 <HubReadDescriptor>:
   13c30:	e92d4030 	push	{r4, r5, lr}
   13c34:	e24dd01c 	sub	sp, sp, #28
   13c38:	e3a03002 	mov	r3, #2
   13c3c:	e28d1014 	add	r1, sp, #20
   13c40:	e88d000a 	stm	sp, {r1, r3}
   13c44:	e3a02000 	mov	r2, #0
   13c48:	e58d3008 	str	r3, [sp, #8]
   13c4c:	e3a03020 	mov	r3, #32
   13c50:	e58d300c 	str	r3, [sp, #12]
   13c54:	e3a01029 	mov	r1, #41	; 0x29
   13c58:	e1a03002 	mov	r3, r2
   13c5c:	e1a05000 	mov	r5, r0
   13c60:	ebfff453 	bl	10db4 <UsbGetDescriptor>
   13c64:	e3500000 	cmp	r0, #0
   13c68:	1a000013 	bne	13cbc <HubReadDescriptor+0x8c>
   13c6c:	e5954404 	ldr	r4, [r5, #1028]	; 0x404
   13c70:	e5d4200d 	ldrb	r2, [r4, #13]
   13c74:	e5d4300c 	ldrb	r3, [r4, #12]
   13c78:	e5d4100e 	ldrb	r1, [r4, #14]
   13c7c:	e1833402 	orr	r3, r3, r2, lsl #8
   13c80:	e5d4200f 	ldrb	r2, [r4, #15]
   13c84:	e1833801 	orr	r3, r3, r1, lsl #16
   13c88:	e1933c02 	orrs	r3, r3, r2, lsl #24
   13c8c:	0a00000f 	beq	13cd0 <HubReadDescriptor+0xa0>
   13c90:	e5dd1014 	ldrb	r1, [sp, #20]
   13c94:	e3a02000 	mov	r2, #0
   13c98:	e58d3000 	str	r3, [sp]
   13c9c:	e3a03020 	mov	r3, #32
   13ca0:	e58d1004 	str	r1, [sp, #4]
   13ca4:	e58d1008 	str	r1, [sp, #8]
   13ca8:	e58d300c 	str	r3, [sp, #12]
   13cac:	e1a00005 	mov	r0, r5
   13cb0:	e3a01029 	mov	r1, #41	; 0x29
   13cb4:	e1a03002 	mov	r3, r2
   13cb8:	ebfff43d 	bl	10db4 <UsbGetDescriptor>
   13cbc:	e1a00c00 	lsl	r0, r0, #24
   13cc0:	e1a00c40 	asr	r0, r0, #24
   13cc4:	e28dd01c 	add	sp, sp, #28
   13cc8:	e8bd4030 	pop	{r4, r5, lr}
   13ccc:	e12fff1e 	bx	lr
   13cd0:	e5dd0014 	ldrb	r0, [sp, #20]
   13cd4:	ebffdf44 	bl	b9ec <MemoryAllocate>
   13cd8:	e1a01420 	lsr	r1, r0, #8
   13cdc:	e1a02820 	lsr	r2, r0, #16
   13ce0:	e1a03c20 	lsr	r3, r0, #24
   13ce4:	e3500000 	cmp	r0, #0
   13ce8:	e5c4000c 	strb	r0, [r4, #12]
   13cec:	e5c4100d 	strb	r1, [r4, #13]
   13cf0:	e5c4200e 	strb	r2, [r4, #14]
   13cf4:	e5c4300f 	strb	r3, [r4, #15]
   13cf8:	0a000008 	beq	13d20 <HubReadDescriptor+0xf0>
   13cfc:	e5951404 	ldr	r1, [r5, #1028]	; 0x404
   13d00:	e5d1200d 	ldrb	r2, [r1, #13]
   13d04:	e5d1300c 	ldrb	r3, [r1, #12]
   13d08:	e5d1000e 	ldrb	r0, [r1, #14]
   13d0c:	e1833402 	orr	r3, r3, r2, lsl #8
   13d10:	e5d1200f 	ldrb	r2, [r1, #15]
   13d14:	e1833800 	orr	r3, r3, r0, lsl #16
   13d18:	e1833c02 	orr	r3, r3, r2, lsl #24
   13d1c:	eaffffdb 	b	13c90 <HubReadDescriptor+0x60>
   13d20:	e3a000f9 	mov	r0, #249	; 0xf9
   13d24:	eaffffe4 	b	13cbc <HubReadDescriptor+0x8c>

00013d28 <HubGetStatus>:
   13d28:	e92d4010 	push	{r4, lr}
   13d2c:	e5d0301b 	ldrb	r3, [r0, #27]
   13d30:	e20330ff 	and	r3, r3, #255	; 0xff
   13d34:	e24dd018 	sub	sp, sp, #24
   13d38:	e3a02000 	mov	r2, #0
   13d3c:	e3530008 	cmp	r3, #8
   13d40:	e1a04000 	mov	r4, r0
   13d44:	e58d200c 	str	r2, [sp, #12]
   13d48:	9a000005 	bls	13d64 <HubGetStatus+0x3c>
   13d4c:	e3530010 	cmp	r3, #16
   13d50:	93a02001 	movls	r2, #1
   13d54:	9a000002 	bls	13d64 <HubGetStatus+0x3c>
   13d58:	e3530020 	cmp	r3, #32
   13d5c:	83a02003 	movhi	r2, #3
   13d60:	93a02002 	movls	r2, #2
   13d64:	e5dd000c 	ldrb	r0, [sp, #12]
   13d68:	e5d4c004 	ldrb	ip, [r4, #4]
   13d6c:	e20000f0 	and	r0, r0, #240	; 0xf0
   13d70:	e5dd100e 	ldrb	r1, [sp, #14]
   13d74:	e1803002 	orr	r3, r0, r2
   13d78:	e20cc003 	and	ip, ip, #3
   13d7c:	e5d40000 	ldrb	r0, [r4]
   13d80:	e183310c 	orr	r3, r3, ip, lsl #2
   13d84:	e5942404 	ldr	r2, [r4, #1028]	; 0x404
   13d88:	e3811004 	orr	r1, r1, #4
   13d8c:	e5cd300c 	strb	r3, [sp, #12]
   13d90:	e28d3010 	add	r3, sp, #16
   13d94:	e5cd000d 	strb	r0, [sp, #13]
   13d98:	e3a0c004 	mov	ip, #4
   13d9c:	e3a0e000 	mov	lr, #0
   13da0:	e5cd100e 	strb	r1, [sp, #14]
   13da4:	e58d3000 	str	r3, [sp]
   13da8:	e3a0300a 	mov	r3, #10
   13dac:	e58de010 	str	lr, [sp, #16]
   13db0:	e58de014 	str	lr, [sp, #20]
   13db4:	e58d3004 	str	r3, [sp, #4]
   13db8:	e3e0e05f 	mvn	lr, #95	; 0x5f
   13dbc:	e1a00004 	mov	r0, r4
   13dc0:	e59d100c 	ldr	r1, [sp, #12]
   13dc4:	e2822008 	add	r2, r2, #8
   13dc8:	e1a0300c 	mov	r3, ip
   13dcc:	e5cde010 	strb	lr, [sp, #16]
   13dd0:	e1cdc1b6 	strh	ip, [sp, #22]
   13dd4:	ebfff3b8 	bl	10cbc <UsbControlMessage>
   13dd8:	e3500000 	cmp	r0, #0
   13ddc:	1a000002 	bne	13dec <HubGetStatus+0xc4>
   13de0:	e5943408 	ldr	r3, [r4, #1032]	; 0x408
   13de4:	e3530003 	cmp	r3, #3
   13de8:	93a000fc 	movls	r0, #252	; 0xfc
   13dec:	e1a00c00 	lsl	r0, r0, #24
   13df0:	e1a00c40 	asr	r0, r0, #24
   13df4:	e28dd018 	add	sp, sp, #24
   13df8:	e8bd4010 	pop	{r4, lr}
   13dfc:	e12fff1e 	bx	lr

00013e00 <HubPortGetStatus>:
   13e00:	e92d4030 	push	{r4, r5, lr}
   13e04:	e5d0301b 	ldrb	r3, [r0, #27]
   13e08:	e20330ff 	and	r3, r3, #255	; 0xff
   13e0c:	e24dd01c 	sub	sp, sp, #28
   13e10:	e3a02000 	mov	r2, #0
   13e14:	e3530008 	cmp	r3, #8
   13e18:	e1a04000 	mov	r4, r0
   13e1c:	e58d200c 	str	r2, [sp, #12]
   13e20:	9a000005 	bls	13e3c <HubPortGetStatus+0x3c>
   13e24:	e3530010 	cmp	r3, #16
   13e28:	93a02001 	movls	r2, #1
   13e2c:	9a000002 	bls	13e3c <HubPortGetStatus+0x3c>
   13e30:	e3530020 	cmp	r3, #32
   13e34:	83a02003 	movhi	r2, #3
   13e38:	93a02002 	movls	r2, #2
   13e3c:	e5ddc00c 	ldrb	ip, [sp, #12]
   13e40:	e5d4e004 	ldrb	lr, [r4, #4]
   13e44:	e20cc0f0 	and	ip, ip, #240	; 0xf0
   13e48:	e5dd000e 	ldrb	r0, [sp, #14]
   13e4c:	e18c3002 	orr	r3, ip, r2
   13e50:	e20ee003 	and	lr, lr, #3
   13e54:	e5d4c000 	ldrb	ip, [r4]
   13e58:	e5942404 	ldr	r2, [r4, #1028]	; 0x404
   13e5c:	e183310e 	orr	r3, r3, lr, lsl #2
   13e60:	e5cd300c 	strb	r3, [sp, #12]
   13e64:	e3800004 	orr	r0, r0, #4
   13e68:	e28d3010 	add	r3, sp, #16
   13e6c:	e5cdc00d 	strb	ip, [sp, #13]
   13e70:	e5cd000e 	strb	r0, [sp, #14]
   13e74:	e3a0c004 	mov	ip, #4
   13e78:	e281e001 	add	lr, r1, #1
   13e7c:	e0822101 	add	r2, r2, r1, lsl #2
   13e80:	e58d3000 	str	r3, [sp]
   13e84:	e3a0300a 	mov	r3, #10
   13e88:	e58d3004 	str	r3, [sp, #4]
   13e8c:	e1cde1b4 	strh	lr, [sp, #20]
   13e90:	e1a00004 	mov	r0, r4
   13e94:	e3e0e05c 	mvn	lr, #92	; 0x5c
   13e98:	e59d100c 	ldr	r1, [sp, #12]
   13e9c:	e2822014 	add	r2, r2, #20
   13ea0:	e1a0300c 	mov	r3, ip
   13ea4:	e3a05000 	mov	r5, #0
   13ea8:	e58d5010 	str	r5, [sp, #16]
   13eac:	e1cdc1b6 	strh	ip, [sp, #22]
   13eb0:	e5cde010 	strb	lr, [sp, #16]
   13eb4:	ebfff380 	bl	10cbc <UsbControlMessage>
   13eb8:	e3500000 	cmp	r0, #0
   13ebc:	1a000002 	bne	13ecc <HubPortGetStatus+0xcc>
   13ec0:	e5943408 	ldr	r3, [r4, #1032]	; 0x408
   13ec4:	e3530003 	cmp	r3, #3
   13ec8:	93a000fc 	movls	r0, #252	; 0xfc
   13ecc:	e1a00c00 	lsl	r0, r0, #24
   13ed0:	e1a00c40 	asr	r0, r0, #24
   13ed4:	e28dd01c 	add	sp, sp, #28
   13ed8:	e8bd4030 	pop	{r4, r5, lr}
   13edc:	e12fff1e 	bx	lr

00013ee0 <HubChangeFeature>:
   13ee0:	e92d4010 	push	{r4, lr}
   13ee4:	e5d0301b 	ldrb	r3, [r0, #27]
   13ee8:	e20330ff 	and	r3, r3, #255	; 0xff
   13eec:	e24dd018 	sub	sp, sp, #24
   13ef0:	e3a0c000 	mov	ip, #0
   13ef4:	e3530008 	cmp	r3, #8
   13ef8:	e1a0e001 	mov	lr, r1
   13efc:	e1a04002 	mov	r4, r2
   13f00:	e58dc00c 	str	ip, [sp, #12]
   13f04:	9a000005 	bls	13f20 <HubChangeFeature+0x40>
   13f08:	e3530010 	cmp	r3, #16
   13f0c:	93a0c001 	movls	ip, #1
   13f10:	9a000002 	bls	13f20 <HubChangeFeature+0x40>
   13f14:	e3530020 	cmp	r3, #32
   13f18:	83a0c003 	movhi	ip, #3
   13f1c:	93a0c002 	movls	ip, #2
   13f20:	e5dd200c 	ldrb	r2, [sp, #12]
   13f24:	e5d01004 	ldrb	r1, [r0, #4]
   13f28:	e20220f0 	and	r2, r2, #240	; 0xf0
   13f2c:	e182300c 	orr	r3, r2, ip
   13f30:	e2011003 	and	r1, r1, #3
   13f34:	e5d02000 	ldrb	r2, [r0]
   13f38:	e1833101 	orr	r3, r3, r1, lsl #2
   13f3c:	e3a0c000 	mov	ip, #0
   13f40:	e5cd300c 	strb	r3, [sp, #12]
   13f44:	e28d3010 	add	r3, sp, #16
   13f48:	e154000c 	cmp	r4, ip
   13f4c:	e5cd200d 	strb	r2, [sp, #13]
   13f50:	e58d3000 	str	r3, [sp]
   13f54:	e3a0300a 	mov	r3, #10
   13f58:	e1a0200c 	mov	r2, ip
   13f5c:	13a04003 	movne	r4, #3
   13f60:	03a04001 	moveq	r4, #1
   13f64:	e58d3004 	str	r3, [sp, #4]
   13f68:	e58dc014 	str	ip, [sp, #20]
   13f6c:	e1a0300c 	mov	r3, ip
   13f70:	e59d100c 	ldr	r1, [sp, #12]
   13f74:	e3a0c020 	mov	ip, #32
   13f78:	e5cdc010 	strb	ip, [sp, #16]
   13f7c:	e5cd4011 	strb	r4, [sp, #17]
   13f80:	e1cde1b2 	strh	lr, [sp, #18]
   13f84:	ebfff34c 	bl	10cbc <UsbControlMessage>
   13f88:	e28dd018 	add	sp, sp, #24
   13f8c:	e8bd4010 	pop	{r4, lr}
   13f90:	e12fff1e 	bx	lr

00013f94 <HubChangePortFeature>:
   13f94:	e92d4030 	push	{r4, r5, lr}
   13f98:	e5d0c01b 	ldrb	ip, [r0, #27]
   13f9c:	e20cc0ff 	and	ip, ip, #255	; 0xff
   13fa0:	e24dd01c 	sub	sp, sp, #28
   13fa4:	e3a0e000 	mov	lr, #0
   13fa8:	e35c0008 	cmp	ip, #8
   13fac:	e1a04001 	mov	r4, r1
   13fb0:	e58de00c 	str	lr, [sp, #12]
   13fb4:	e1a01002 	mov	r1, r2
   13fb8:	9a000005 	bls	13fd4 <HubChangePortFeature+0x40>
   13fbc:	e35c0010 	cmp	ip, #16
   13fc0:	93a0e001 	movls	lr, #1
   13fc4:	9a000002 	bls	13fd4 <HubChangePortFeature+0x40>
   13fc8:	e35c0020 	cmp	ip, #32
   13fcc:	83a0e003 	movhi	lr, #3
   13fd0:	93a0e002 	movls	lr, #2
   13fd4:	e5dd200c 	ldrb	r2, [sp, #12]
   13fd8:	e5d05004 	ldrb	r5, [r0, #4]
   13fdc:	e20220f0 	and	r2, r2, #240	; 0xf0
   13fe0:	e2055003 	and	r5, r5, #3
   13fe4:	e3a0c000 	mov	ip, #0
   13fe8:	e182e00e 	orr	lr, r2, lr
   13fec:	e5d02000 	ldrb	r2, [r0]
   13ff0:	e18ee105 	orr	lr, lr, r5, lsl #2
   13ff4:	e153000c 	cmp	r3, ip
   13ff8:	e28d3010 	add	r3, sp, #16
   13ffc:	e5cde00c 	strb	lr, [sp, #12]
   14000:	e5cd200d 	strb	r2, [sp, #13]
   14004:	e58d3000 	str	r3, [sp]
   14008:	e3a0300a 	mov	r3, #10
   1400c:	e281e001 	add	lr, r1, #1
   14010:	e58dc014 	str	ip, [sp, #20]
   14014:	e1a0200c 	mov	r2, ip
   14018:	13a05003 	movne	r5, #3
   1401c:	03a05001 	moveq	r5, #1
   14020:	e58d3004 	str	r3, [sp, #4]
   14024:	e59d100c 	ldr	r1, [sp, #12]
   14028:	e1a0300c 	mov	r3, ip
   1402c:	e3a0c023 	mov	ip, #35	; 0x23
   14030:	e5cdc010 	strb	ip, [sp, #16]
   14034:	e5cd5011 	strb	r5, [sp, #17]
   14038:	e1cd41b2 	strh	r4, [sp, #18]
   1403c:	e1cde1b4 	strh	lr, [sp, #20]
   14040:	ebfff31d 	bl	10cbc <UsbControlMessage>
   14044:	e28dd01c 	add	sp, sp, #28
   14048:	e8bd4030 	pop	{r4, r5, lr}
   1404c:	e12fff1e 	bx	lr

00014050 <HubPowerOn>:
   14050:	e92d40f8 	push	{r3, r4, r5, r6, r7, lr}
   14054:	e5904404 	ldr	r4, [r0, #1028]	; 0x404
   14058:	e5d41011 	ldrb	r1, [r4, #17]
   1405c:	e5d42010 	ldrb	r2, [r4, #16]
   14060:	e5d4300c 	ldrb	r3, [r4, #12]
   14064:	e5d4700d 	ldrb	r7, [r4, #13]
   14068:	e5d4c012 	ldrb	ip, [r4, #18]
   1406c:	e1822401 	orr	r2, r2, r1, lsl #8
   14070:	e1a06000 	mov	r6, r0
   14074:	e5d41013 	ldrb	r1, [r4, #19]
   14078:	e5d4000e 	ldrb	r0, [r4, #14]
   1407c:	e1837407 	orr	r7, r3, r7, lsl #8
   14080:	e182280c 	orr	r2, r2, ip, lsl #16
   14084:	e5d4300f 	ldrb	r3, [r4, #15]
   14088:	e1877800 	orr	r7, r7, r0, lsl #16
   1408c:	e1921c01 	orrs	r1, r2, r1, lsl #24
   14090:	e1877c03 	orr	r7, r7, r3, lsl #24
   14094:	0a00000f 	beq	140d8 <HubPowerOn+0x88>
   14098:	e3a05000 	mov	r5, #0
   1409c:	e20520ff 	and	r2, r5, #255	; 0xff
   140a0:	e3a01008 	mov	r1, #8
   140a4:	e3a03001 	mov	r3, #1
   140a8:	e1a00006 	mov	r0, r6
   140ac:	ebffffb8 	bl	13f94 <HubChangePortFeature>
   140b0:	e5d42011 	ldrb	r2, [r4, #17]
   140b4:	e5d43010 	ldrb	r3, [r4, #16]
   140b8:	e5d41012 	ldrb	r1, [r4, #18]
   140bc:	e1833402 	orr	r3, r3, r2, lsl #8
   140c0:	e5d42013 	ldrb	r2, [r4, #19]
   140c4:	e1833801 	orr	r3, r3, r1, lsl #16
   140c8:	e2855001 	add	r5, r5, #1
   140cc:	e1833c02 	orr	r3, r3, r2, lsl #24
   140d0:	e1530005 	cmp	r3, r5
   140d4:	8afffff0 	bhi	1409c <HubPowerOn+0x4c>
   140d8:	e5d73005 	ldrb	r3, [r7, #5]
   140dc:	e0632283 	rsb	r2, r3, r3, lsl #5
   140e0:	e0830102 	add	r0, r3, r2, lsl #2
   140e4:	e1a00200 	lsl	r0, r0, #4
   140e8:	eb000995 	bl	16744 <MicroDelay>
   140ec:	e3a00000 	mov	r0, #0
   140f0:	e8bd40f8 	pop	{r3, r4, r5, r6, r7, lr}
   140f4:	e12fff1e 	bx	lr

000140f8 <HubPortReset>:
   140f8:	e92d45f8 	push	{r3, r4, r5, r6, r7, r8, sl, lr}
   140fc:	e5905404 	ldr	r5, [r0, #1028]	; 0x404
   14100:	e0855101 	add	r5, r5, r1, lsl #2
   14104:	e1a08000 	mov	r8, r0
   14108:	e1a07001 	mov	r7, r1
   1410c:	e2855014 	add	r5, r5, #20
   14110:	e3a0a003 	mov	sl, #3
   14114:	e1a00008 	mov	r0, r8
   14118:	e3a01004 	mov	r1, #4
   1411c:	e1a02007 	mov	r2, r7
   14120:	e3a03001 	mov	r3, #1
   14124:	ebffff9a 	bl	13f94 <HubChangePortFeature>
   14128:	e2506000 	subs	r6, r0, #0
   1412c:	1a000013 	bne	14180 <HubPortReset+0x88>
   14130:	e1a04006 	mov	r4, r6
   14134:	e59f008c 	ldr	r0, [pc, #140]	; 141c8 <HubPortReset+0xd0>
   14138:	eb000981 	bl	16744 <MicroDelay>
   1413c:	e1a00008 	mov	r0, r8
   14140:	e1a01007 	mov	r1, r7
   14144:	ebffff2d 	bl	13e00 <HubPortGetStatus>
   14148:	e2506000 	subs	r6, r0, #0
   1414c:	1a00000b 	bne	14180 <HubPortReset+0x88>
   14150:	e5d53002 	ldrb	r3, [r5, #2]
   14154:	e3130010 	tst	r3, #16
   14158:	e2844001 	add	r4, r4, #1
   1415c:	1a00000b 	bne	14190 <HubPortReset+0x98>
   14160:	e5d5c000 	ldrb	ip, [r5]
   14164:	e31c0002 	tst	ip, #2
   14168:	1a000008 	bne	14190 <HubPortReset+0x98>
   1416c:	e354000a 	cmp	r4, #10
   14170:	1affffef 	bne	14134 <HubPortReset+0x3c>
   14174:	e25aa001 	subs	sl, sl, #1
   14178:	1affffe5 	bne	14114 <HubPortReset+0x1c>
   1417c:	e3a060fc 	mov	r6, #252	; 0xfc
   14180:	e1a06c06 	lsl	r6, r6, #24
   14184:	e1a00c46 	asr	r0, r6, #24
   14188:	e8bd45f8 	pop	{r3, r4, r5, r6, r7, r8, sl, lr}
   1418c:	e12fff1e 	bx	lr
   14190:	e354000a 	cmp	r4, #10
   14194:	0afffff6 	beq	14174 <HubPortReset+0x7c>
   14198:	e2133001 	ands	r3, r3, #1
   1419c:	1afffff6 	bne	1417c <HubPortReset+0x84>
   141a0:	e5d52000 	ldrb	r2, [r5]
   141a4:	e3120001 	tst	r2, #1
   141a8:	0afffff3 	beq	1417c <HubPortReset+0x84>
   141ac:	e3120002 	tst	r2, #2
   141b0:	0affffef 	beq	14174 <HubPortReset+0x7c>
   141b4:	e1a00008 	mov	r0, r8
   141b8:	e3a01014 	mov	r1, #20
   141bc:	e1a02007 	mov	r2, r7
   141c0:	ebffff73 	bl	13f94 <HubChangePortFeature>
   141c4:	eaffffed 	b	14180 <HubPortReset+0x88>
   141c8:	00004e20 	.word	0x00004e20

000141cc <HubPortConnectionChanged>:
   141cc:	e92d47f0 	push	{r4, r5, r6, r7, r8, r9, sl, lr}
   141d0:	e1a04000 	mov	r4, r0
   141d4:	e1a06001 	mov	r6, r1
   141d8:	e5907404 	ldr	r7, [r0, #1028]	; 0x404
   141dc:	ebffff07 	bl	13e00 <HubPortGetStatus>
   141e0:	e2505000 	subs	r5, r0, #0
   141e4:	0a000003 	beq	141f8 <HubPortConnectionChanged+0x2c>
   141e8:	e1a00c05 	lsl	r0, r5, #24
   141ec:	e1a00c40 	asr	r0, r0, #24
   141f0:	e8bd47f0 	pop	{r4, r5, r6, r7, r8, r9, sl, lr}
   141f4:	e12fff1e 	bx	lr
   141f8:	e2869004 	add	r9, r6, #4
   141fc:	e0879109 	add	r9, r7, r9, lsl #2
   14200:	e1a03005 	mov	r3, r5
   14204:	e1a00004 	mov	r0, r4
   14208:	e3a01010 	mov	r1, #16
   1420c:	e1a02006 	mov	r2, r6
   14210:	ebffff5f 	bl	13f94 <HubChangePortFeature>
   14214:	e5d93004 	ldrb	r3, [r9, #4]
   14218:	e3130003 	tst	r3, #3
   1421c:	e286800e 	add	r8, r6, #14
   14220:	e289a004 	add	sl, r9, #4
   14224:	0a000055 	beq	14380 <HubPortConnectionChanged+0x1b4>
   14228:	e0873108 	add	r3, r7, r8, lsl #2
   1422c:	e5d30005 	ldrb	r0, [r3, #5]
   14230:	e5d32004 	ldrb	r2, [r3, #4]
   14234:	e5d31006 	ldrb	r1, [r3, #6]
   14238:	e1822400 	orr	r2, r2, r0, lsl #8
   1423c:	e5d30007 	ldrb	r0, [r3, #7]
   14240:	e1823801 	orr	r3, r2, r1, lsl #16
   14244:	e1930c00 	orrs	r0, r3, r0, lsl #24
   14248:	0a000009 	beq	14274 <HubPortConnectionChanged+0xa8>
   1424c:	ebfff625 	bl	11ae8 <UsbDeallocateDevice>
   14250:	e0873108 	add	r3, r7, r8, lsl #2
   14254:	e3a02000 	mov	r2, #0
   14258:	e5c32004 	strb	r2, [r3, #4]
   1425c:	e5c32005 	strb	r2, [r3, #5]
   14260:	e5c32006 	strb	r2, [r3, #6]
   14264:	e5c32007 	strb	r2, [r3, #7]
   14268:	e5d93004 	ldrb	r3, [r9, #4]
   1426c:	e3130001 	tst	r3, #1
   14270:	0affffdc 	beq	141e8 <HubPortConnectionChanged+0x1c>
   14274:	e1a00004 	mov	r0, r4
   14278:	e1a01006 	mov	r1, r6
   1427c:	ebffff9d 	bl	140f8 <HubPortReset>
   14280:	e3500000 	cmp	r0, #0
   14284:	0a000001 	beq	14290 <HubPortConnectionChanged+0xc4>
   14288:	e1a05000 	mov	r5, r0
   1428c:	eaffffd5 	b	141e8 <HubPortConnectionChanged+0x1c>
   14290:	e0879108 	add	r9, r7, r8, lsl #2
   14294:	e2890004 	add	r0, r9, #4
   14298:	ebfff5e3 	bl	11a2c <UsbAllocateDevice>
   1429c:	e3500000 	cmp	r0, #0
   142a0:	1afffff8 	bne	14288 <HubPortConnectionChanged+0xbc>
   142a4:	e1a00004 	mov	r0, r4
   142a8:	e1a01006 	mov	r1, r6
   142ac:	ebfffed3 	bl	13e00 <HubPortGetStatus>
   142b0:	e3500000 	cmp	r0, #0
   142b4:	1afffff3 	bne	14288 <HubPortConnectionChanged+0xbc>
   142b8:	e5da3001 	ldrb	r3, [sl, #1]
   142bc:	e3130004 	tst	r3, #4
   142c0:	0a000037 	beq	143a4 <HubPortConnectionChanged+0x1d8>
   142c4:	e5d93004 	ldrb	r3, [r9, #4]
   142c8:	e5d9c005 	ldrb	ip, [r9, #5]
   142cc:	e5d91006 	ldrb	r1, [r9, #6]
   142d0:	e5d92007 	ldrb	r2, [r9, #7]
   142d4:	e183340c 	orr	r3, r3, ip, lsl #8
   142d8:	e1833801 	orr	r3, r3, r1, lsl #16
   142dc:	e1833c02 	orr	r3, r3, r2, lsl #24
   142e0:	e5c30004 	strb	r0, [r3, #4]
   142e4:	e0877108 	add	r7, r7, r8, lsl #2
   142e8:	e5d70005 	ldrb	r0, [r7, #5]
   142ec:	e5d73004 	ldrb	r3, [r7, #4]
   142f0:	e5d71006 	ldrb	r1, [r7, #6]
   142f4:	e5d72007 	ldrb	r2, [r7, #7]
   142f8:	e1833400 	orr	r3, r3, r0, lsl #8
   142fc:	e1833801 	orr	r3, r3, r1, lsl #16
   14300:	e1833c02 	orr	r3, r3, r2, lsl #24
   14304:	e58343fc 	str	r4, [r3, #1020]	; 0x3fc
   14308:	e5c36007 	strb	r6, [r3, #7]
   1430c:	e5d73004 	ldrb	r3, [r7, #4]
   14310:	e5d71005 	ldrb	r1, [r7, #5]
   14314:	e5d72006 	ldrb	r2, [r7, #6]
   14318:	e1833401 	orr	r3, r3, r1, lsl #8
   1431c:	e5d70007 	ldrb	r0, [r7, #7]
   14320:	e1833802 	orr	r3, r3, r2, lsl #16
   14324:	e1830c00 	orr	r0, r3, r0, lsl #24
   14328:	ebfff535 	bl	11804 <UsbScanDevice>
   1432c:	e2508000 	subs	r8, r0, #0
   14330:	0affffac 	beq	141e8 <HubPortConnectionChanged+0x1c>
   14334:	e5d71005 	ldrb	r1, [r7, #5]
   14338:	e5d73004 	ldrb	r3, [r7, #4]
   1433c:	e5d72006 	ldrb	r2, [r7, #6]
   14340:	e1833401 	orr	r3, r3, r1, lsl #8
   14344:	e5d70007 	ldrb	r0, [r7, #7]
   14348:	e1833802 	orr	r3, r3, r2, lsl #16
   1434c:	e1830c00 	orr	r0, r3, r0, lsl #24
   14350:	ebfff5e4 	bl	11ae8 <UsbDeallocateDevice>
   14354:	e3a03000 	mov	r3, #0
   14358:	e5c73004 	strb	r3, [r7, #4]
   1435c:	e5c73005 	strb	r3, [r7, #5]
   14360:	e5c73006 	strb	r3, [r7, #6]
   14364:	e5c73007 	strb	r3, [r7, #7]
   14368:	e1a00004 	mov	r0, r4
   1436c:	e3a01001 	mov	r1, #1
   14370:	e1a02006 	mov	r2, r6
   14374:	ebffff06 	bl	13f94 <HubChangePortFeature>
   14378:	e1a05008 	mov	r5, r8
   1437c:	eaffff99 	b	141e8 <HubPortConnectionChanged+0x1c>
   14380:	e0872108 	add	r2, r7, r8, lsl #2
   14384:	e5d23004 	ldrb	r3, [r2, #4]
   14388:	e5d20005 	ldrb	r0, [r2, #5]
   1438c:	e5d21006 	ldrb	r1, [r2, #6]
   14390:	e1830400 	orr	r0, r3, r0, lsl #8
   14394:	e5d23007 	ldrb	r3, [r2, #7]
   14398:	e1800801 	orr	r0, r0, r1, lsl #16
   1439c:	e1800c03 	orr	r0, r0, r3, lsl #24
   143a0:	eaffffa9 	b	1424c <HubPortConnectionChanged+0x80>
   143a4:	e3130002 	tst	r3, #2
   143a8:	e5d90005 	ldrb	r0, [r9, #5]
   143ac:	e5d93004 	ldrb	r3, [r9, #4]
   143b0:	e5d91006 	ldrb	r1, [r9, #6]
   143b4:	e5d92007 	ldrb	r2, [r9, #7]
   143b8:	e1833400 	orr	r3, r3, r0, lsl #8
   143bc:	e1833801 	orr	r3, r3, r1, lsl #16
   143c0:	e1833c02 	orr	r3, r3, r2, lsl #24
   143c4:	13a02002 	movne	r2, #2
   143c8:	03a02001 	moveq	r2, #1
   143cc:	e5c32004 	strb	r2, [r3, #4]
   143d0:	eaffffc3 	b	142e4 <HubPortConnectionChanged+0x118>

000143d4 <HubCheckConnection>:
   143d4:	e92d45f8 	push	{r3, r4, r5, r6, r7, r8, sl, lr}
   143d8:	e1a04000 	mov	r4, r0
   143dc:	e1a05001 	mov	r5, r1
   143e0:	e590a404 	ldr	sl, [r0, #1028]	; 0x404
   143e4:	ebfffe85 	bl	13e00 <HubPortGetStatus>
   143e8:	e2507000 	subs	r7, r0, #0
   143ec:	1a000014 	bne	14444 <HubCheckConnection+0x70>
   143f0:	e2858004 	add	r8, r5, #4
   143f4:	e08a8108 	add	r8, sl, r8, lsl #2
   143f8:	e2886004 	add	r6, r8, #4
   143fc:	e5d63002 	ldrb	r3, [r6, #2]
   14400:	e3130001 	tst	r3, #1
   14404:	1a000029 	bne	144b0 <HubCheckConnection+0xdc>
   14408:	e3130002 	tst	r3, #2
   1440c:	1a000010 	bne	14454 <HubCheckConnection+0x80>
   14410:	e5d83004 	ldrb	r3, [r8, #4]
   14414:	e3130004 	tst	r3, #4
   14418:	1a000034 	bne	144f0 <HubCheckConnection+0x11c>
   1441c:	e5d63002 	ldrb	r3, [r6, #2]
   14420:	e3130008 	tst	r3, #8
   14424:	1a000028 	bne	144cc <HubCheckConnection+0xf8>
   14428:	e3130010 	tst	r3, #16
   1442c:	0a000004 	beq	14444 <HubCheckConnection+0x70>
   14430:	e1a00004 	mov	r0, r4
   14434:	e3a01014 	mov	r1, #20
   14438:	e1a02005 	mov	r2, r5
   1443c:	e3a03000 	mov	r3, #0
   14440:	ebfffed3 	bl	13f94 <HubChangePortFeature>
   14444:	e1a00c07 	lsl	r0, r7, #24
   14448:	e1a00c40 	asr	r0, r0, #24
   1444c:	e8bd45f8 	pop	{r3, r4, r5, r6, r7, r8, sl, lr}
   14450:	e12fff1e 	bx	lr
   14454:	e1a02005 	mov	r2, r5
   14458:	e3a03000 	mov	r3, #0
   1445c:	e1a00004 	mov	r0, r4
   14460:	e3a01011 	mov	r1, #17
   14464:	ebfffeca 	bl	13f94 <HubChangePortFeature>
   14468:	e5d83004 	ldrb	r3, [r8, #4]
   1446c:	e2032003 	and	r2, r3, #3
   14470:	e3520001 	cmp	r2, #1
   14474:	1affffe6 	bne	14414 <HubCheckConnection+0x40>
   14478:	e285200e 	add	r2, r5, #14
   1447c:	e08aa102 	add	sl, sl, r2, lsl #2
   14480:	e5da1005 	ldrb	r1, [sl, #5]
   14484:	e5da2004 	ldrb	r2, [sl, #4]
   14488:	e5da0006 	ldrb	r0, [sl, #6]
   1448c:	e1822401 	orr	r2, r2, r1, lsl #8
   14490:	e5da1007 	ldrb	r1, [sl, #7]
   14494:	e1822800 	orr	r2, r2, r0, lsl #16
   14498:	e1921c01 	orrs	r1, r2, r1, lsl #24
   1449c:	0affffdc 	beq	14414 <HubCheckConnection+0x40>
   144a0:	e1a00004 	mov	r0, r4
   144a4:	e1a01005 	mov	r1, r5
   144a8:	ebffff47 	bl	141cc <HubPortConnectionChanged>
   144ac:	eaffffd7 	b	14410 <HubCheckConnection+0x3c>
   144b0:	e1a00004 	mov	r0, r4
   144b4:	e1a01005 	mov	r1, r5
   144b8:	ebffff43 	bl	141cc <HubPortConnectionChanged>
   144bc:	e5d63002 	ldrb	r3, [r6, #2]
   144c0:	e3130002 	tst	r3, #2
   144c4:	0affffd1 	beq	14410 <HubCheckConnection+0x3c>
   144c8:	eaffffe1 	b	14454 <HubCheckConnection+0x80>
   144cc:	e3a03000 	mov	r3, #0
   144d0:	e3a01013 	mov	r1, #19
   144d4:	e1a02005 	mov	r2, r5
   144d8:	e1a00004 	mov	r0, r4
   144dc:	ebfffeac 	bl	13f94 <HubChangePortFeature>
   144e0:	e1a00004 	mov	r0, r4
   144e4:	ebfffed9 	bl	14050 <HubPowerOn>
   144e8:	e5d63002 	ldrb	r3, [r6, #2]
   144ec:	eaffffcd 	b	14428 <HubCheckConnection+0x54>
   144f0:	e1a00004 	mov	r0, r4
   144f4:	e3a01002 	mov	r1, #2
   144f8:	e1a02005 	mov	r2, r5
   144fc:	e3a03000 	mov	r3, #0
   14500:	ebfffea3 	bl	13f94 <HubChangePortFeature>
   14504:	eaffffc4 	b	1441c <HubCheckConnection+0x48>

00014508 <HubRecursiveCheck>:
   14508:	e92d40f8 	push	{r3, r4, r5, r6, r7, lr}
   1450c:	e5904404 	ldr	r4, [r0, #1028]	; 0x404
   14510:	e5d42011 	ldrb	r2, [r4, #17]
   14514:	e5d43010 	ldrb	r3, [r4, #16]
   14518:	e5d41012 	ldrb	r1, [r4, #18]
   1451c:	e1833402 	orr	r3, r3, r2, lsl #8
   14520:	e5d42013 	ldrb	r2, [r4, #19]
   14524:	e1833801 	orr	r3, r3, r1, lsl #16
   14528:	e1932c02 	orrs	r2, r3, r2, lsl #24
   1452c:	e1a06000 	mov	r6, r0
   14530:	0a000023 	beq	145c4 <HubRecursiveCheck+0xbc>
   14534:	e59f7090 	ldr	r7, [pc, #144]	; 145cc <HubRecursiveCheck+0xc4>
   14538:	e3a05000 	mov	r5, #0
   1453c:	ea000008 	b	14564 <HubRecursiveCheck+0x5c>
   14540:	e5d42011 	ldrb	r2, [r4, #17]
   14544:	e5d43010 	ldrb	r3, [r4, #16]
   14548:	e5d41012 	ldrb	r1, [r4, #18]
   1454c:	e1833402 	orr	r3, r3, r2, lsl #8
   14550:	e5d42013 	ldrb	r2, [r4, #19]
   14554:	e1833801 	orr	r3, r3, r1, lsl #16
   14558:	e1833c02 	orr	r3, r3, r2, lsl #24
   1455c:	e1530005 	cmp	r3, r5
   14560:	9a000017 	bls	145c4 <HubRecursiveCheck+0xbc>
   14564:	e20510ff 	and	r1, r5, #255	; 0xff
   14568:	e1a00006 	mov	r0, r6
   1456c:	ebffff98 	bl	143d4 <HubCheckConnection>
   14570:	e285300e 	add	r3, r5, #14
   14574:	e3500000 	cmp	r0, #0
   14578:	e0843103 	add	r3, r4, r3, lsl #2
   1457c:	e2855001 	add	r5, r5, #1
   14580:	1a00000f 	bne	145c4 <HubRecursiveCheck+0xbc>
   14584:	e5d32004 	ldrb	r2, [r3, #4]
   14588:	e5d31005 	ldrb	r1, [r3, #5]
   1458c:	e5d30006 	ldrb	r0, [r3, #6]
   14590:	e1821401 	orr	r1, r2, r1, lsl #8
   14594:	e5d32007 	ldrb	r2, [r3, #7]
   14598:	e1813800 	orr	r3, r1, r0, lsl #16
   1459c:	e1930c02 	orrs	r0, r3, r2, lsl #24
   145a0:	0affffe6 	beq	14540 <HubRecursiveCheck+0x38>
   145a4:	e5901404 	ldr	r1, [r0, #1028]	; 0x404
   145a8:	e3510000 	cmp	r1, #0
   145ac:	0affffe3 	beq	14540 <HubRecursiveCheck+0x38>
   145b0:	e5913000 	ldr	r3, [r1]
   145b4:	e1530007 	cmp	r3, r7
   145b8:	1affffe0 	bne	14540 <HubRecursiveCheck+0x38>
   145bc:	ebffffd1 	bl	14508 <HubRecursiveCheck>
   145c0:	eaffffde 	b	14540 <HubRecursiveCheck+0x38>
   145c4:	e8bd40f8 	pop	{r3, r4, r5, r6, r7, lr}
   145c8:	e12fff1e 	bx	lr
   145cc:	48554230 	.word	0x48554230

000145d0 <HubScan>:
   145d0:	e92d40f8 	push	{r3, r4, r5, r6, r7, lr}
   145d4:	e1a03181 	lsl	r3, r1, #3
   145d8:	e0832001 	add	r2, r3, r1
   145dc:	e0802002 	add	r2, r0, r2
   145e0:	e2822030 	add	r2, r2, #48	; 0x30
   145e4:	e5d22008 	ldrb	r2, [r2, #8]
   145e8:	e3520001 	cmp	r2, #1
   145ec:	e1a06000 	mov	r6, r0
   145f0:	1a000072 	bne	147c0 <HubScan+0x1f0>
   145f4:	e0613003 	rsb	r3, r1, r3
   145f8:	e0803203 	add	r3, r0, r3, lsl #4
   145fc:	e5d3207e 	ldrb	r2, [r3, #126]	; 0x7e
   14600:	e1b023a2 	lsrs	r2, r2, #7
   14604:	e2833078 	add	r3, r3, #120	; 0x78
   14608:	0a00006c 	beq	147c0 <HubScan+0x1f0>
   1460c:	e5d33007 	ldrb	r3, [r3, #7]
   14610:	e2033003 	and	r3, r3, #3
   14614:	e3530003 	cmp	r3, #3
   14618:	1a000068 	bne	147c0 <HubScan+0x1f0>
   1461c:	e59f31b8 	ldr	r3, [pc, #440]	; 147dc <HubScan+0x20c>
   14620:	e5803010 	str	r3, [r0, #16]
   14624:	e59f31b4 	ldr	r3, [pc, #436]	; 147e0 <HubScan+0x210>
   14628:	e580300c 	str	r3, [r0, #12]
   1462c:	e3a00064 	mov	r0, #100	; 0x64
   14630:	ebffdced 	bl	b9ec <MemoryAllocate>
   14634:	e3500000 	cmp	r0, #0
   14638:	e1a05000 	mov	r5, r0
   1463c:	e5860404 	str	r0, [r6, #1028]	; 0x404
   14640:	0a000063 	beq	147d4 <HubScan+0x204>
   14644:	e5903004 	ldr	r3, [r0, #4]
   14648:	e3a03064 	mov	r3, #100	; 0x64
   1464c:	e5803004 	str	r3, [r0, #4]
   14650:	e5903000 	ldr	r3, [r0]
   14654:	e59f3188 	ldr	r3, [pc, #392]	; 147e4 <HubScan+0x214>
   14658:	e3a04000 	mov	r4, #0
   1465c:	e5803000 	str	r3, [r0]
   14660:	e1a02004 	mov	r2, r4
   14664:	e284300e 	add	r3, r4, #14
   14668:	e2844001 	add	r4, r4, #1
   1466c:	e0853103 	add	r3, r5, r3, lsl #2
   14670:	e354000a 	cmp	r4, #10
   14674:	e5c32004 	strb	r2, [r3, #4]
   14678:	e5c32005 	strb	r2, [r3, #5]
   1467c:	e5c32006 	strb	r2, [r3, #6]
   14680:	e5c32007 	strb	r2, [r3, #7]
   14684:	1afffff6 	bne	14664 <HubScan+0x94>
   14688:	e1a00006 	mov	r0, r6
   1468c:	ebfffd67 	bl	13c30 <HubReadDescriptor>
   14690:	e3500000 	cmp	r0, #0
   14694:	e1a07000 	mov	r7, r0
   14698:	1a000019 	bne	14704 <HubScan+0x134>
   1469c:	e5d5200d 	ldrb	r2, [r5, #13]
   146a0:	e5d5300c 	ldrb	r3, [r5, #12]
   146a4:	e5d5100e 	ldrb	r1, [r5, #14]
   146a8:	e1833402 	orr	r3, r3, r2, lsl #8
   146ac:	e5d5200f 	ldrb	r2, [r5, #15]
   146b0:	e1833801 	orr	r3, r3, r1, lsl #16
   146b4:	e1833c02 	orr	r3, r3, r2, lsl #24
   146b8:	e5d32002 	ldrb	r2, [r3, #2]
   146bc:	e352000a 	cmp	r2, #10
   146c0:	91a01c22 	lsrls	r1, r2, #24
   146c4:	95c52010 	strbls	r2, [r5, #16]
   146c8:	93a02000 	movls	r2, #0
   146cc:	95c52011 	strbls	r2, [r5, #17]
   146d0:	95c52012 	strbls	r2, [r5, #18]
   146d4:	85c54010 	strbhi	r4, [r5, #16]
   146d8:	85c50011 	strbhi	r0, [r5, #17]
   146dc:	85c50012 	strbhi	r0, [r5, #18]
   146e0:	85c50013 	strbhi	r0, [r5, #19]
   146e4:	95c51013 	strbls	r1, [r5, #19]
   146e8:	e5d33003 	ldrb	r3, [r3, #3]
   146ec:	e2032003 	and	r2, r3, #3
   146f0:	e3520001 	cmp	r2, #1
   146f4:	9a000006 	bls	14714 <HubScan+0x144>
   146f8:	e1a00006 	mov	r0, r6
   146fc:	ebfffd14 	bl	13b54 <HubDeallocate>
   14700:	e3a070fb 	mov	r7, #251	; 0xfb
   14704:	e1a00c07 	lsl	r0, r7, #24
   14708:	e1a00c40 	asr	r0, r0, #24
   1470c:	e8bd40f8 	pop	{r3, r4, r5, r6, r7, lr}
   14710:	e12fff1e 	bx	lr
   14714:	e1a031a3 	lsr	r3, r3, #3
   14718:	e2033003 	and	r3, r3, #3
   1471c:	e3530001 	cmp	r3, #1
   14720:	e1a00006 	mov	r0, r6
   14724:	9a000002 	bls	14734 <HubScan+0x164>
   14728:	ebfffd09 	bl	13b54 <HubDeallocate>
   1472c:	e3a070fb 	mov	r7, #251	; 0xfb
   14730:	eafffff3 	b	14704 <HubScan+0x134>
   14734:	ebfffd7b 	bl	13d28 <HubGetStatus>
   14738:	e2507000 	subs	r7, r0, #0
   1473c:	1afffff0 	bne	14704 <HubScan+0x134>
   14740:	e1a00006 	mov	r0, r6
   14744:	ebfffe41 	bl	14050 <HubPowerOn>
   14748:	e2507000 	subs	r7, r0, #0
   1474c:	e1a00006 	mov	r0, r6
   14750:	1a00001d 	bne	147cc <HubScan+0x1fc>
   14754:	ebfffd73 	bl	13d28 <HubGetStatus>
   14758:	e2507000 	subs	r7, r0, #0
   1475c:	1a000019 	bne	147c8 <HubScan+0x1f8>
   14760:	e5d52011 	ldrb	r2, [r5, #17]
   14764:	e5d53010 	ldrb	r3, [r5, #16]
   14768:	e5d51012 	ldrb	r1, [r5, #18]
   1476c:	e1833402 	orr	r3, r3, r2, lsl #8
   14770:	e5d52013 	ldrb	r2, [r5, #19]
   14774:	e1833801 	orr	r3, r3, r1, lsl #16
   14778:	e1932c02 	orrs	r2, r3, r2, lsl #24
   1477c:	11a04007 	movne	r4, r7
   14780:	0affffdf 	beq	14704 <HubScan+0x134>
   14784:	e1a01004 	mov	r1, r4
   14788:	e1a00006 	mov	r0, r6
   1478c:	ebffff10 	bl	143d4 <HubCheckConnection>
   14790:	e5d52011 	ldrb	r2, [r5, #17]
   14794:	e5d53010 	ldrb	r3, [r5, #16]
   14798:	e5d51012 	ldrb	r1, [r5, #18]
   1479c:	e1833402 	orr	r3, r3, r2, lsl #8
   147a0:	e5d52013 	ldrb	r2, [r5, #19]
   147a4:	e2844001 	add	r4, r4, #1
   147a8:	e1833801 	orr	r3, r3, r1, lsl #16
   147ac:	e20440ff 	and	r4, r4, #255	; 0xff
   147b0:	e1833c02 	orr	r3, r3, r2, lsl #24
   147b4:	e1540003 	cmp	r4, r3
   147b8:	3afffff1 	bcc	14784 <HubScan+0x1b4>
   147bc:	eaffffd0 	b	14704 <HubScan+0x134>
   147c0:	e3a070fb 	mov	r7, #251	; 0xfb
   147c4:	eaffffce 	b	14704 <HubScan+0x134>
   147c8:	e1a00006 	mov	r0, r6
   147cc:	ebfffce0 	bl	13b54 <HubDeallocate>
   147d0:	eaffffcb 	b	14704 <HubScan+0x134>
   147d4:	e3a070f9 	mov	r7, #249	; 0xf9
   147d8:	eaffffc9 	b	14704 <HubScan+0x134>
   147dc:	00013b54 	.word	0x00013b54
   147e0:	00013ab4 	.word	0x00013ab4
   147e4:	48554230 	.word	0x48554230
   147e8:	00003141 	.word	0x00003141
   147ec:	61656100 	.word	0x61656100
   147f0:	01006962 	.word	0x01006962
   147f4:	00000027 	.word	0x00000027
   147f8:	4d524105 	.word	0x4d524105
   147fc:	4d445437 	.word	0x4d445437
   14800:	02060049 	.word	0x02060049
   14804:	01090108 	.word	0x01090108
   14808:	01140212 	.word	0x01140212
   1480c:	03170115 	.word	0x03170115
   14810:	01190118 	.word	0x01190118
   14814:	021e011a 	.word	0x021e011a
   14818:	0000012c 	.word	0x0000012c

0001481c <WriteThroughRegMask>:
   1481c:	e59f3078 	ldr	r3, [pc, #120]	; 1489c <WriteThroughRegMask+0x80>
   14820:	e593c000 	ldr	ip, [r3]
   14824:	e59f2074 	ldr	r2, [pc, #116]	; 148a0 <WriteThroughRegMask+0x84>
   14828:	e06cc000 	rsb	ip, ip, r0
   1482c:	e15c0002 	cmp	ip, r2
   14830:	9a000014 	bls	14888 <WriteThroughRegMask+0x6c>
   14834:	e593c004 	ldr	ip, [r3, #4]
   14838:	e06cc000 	rsb	ip, ip, r0
   1483c:	e15c0002 	cmp	ip, r2
   14840:	8a000009 	bhi	1486c <WriteThroughRegMask+0x50>
   14844:	e35c0040 	cmp	ip, #64	; 0x40
   14848:	e59f3054 	ldr	r3, [pc, #84]	; 148a4 <WriteThroughRegMask+0x88>
   1484c:	03811a1f 	orreq	r1, r1, #126976	; 0x1f000
   14850:	e5902000 	ldr	r2, [r0]
   14854:	03811d05 	orreq	r1, r1, #320	; 0x140
   14858:	13e01000 	mvnne	r1, #0
   1485c:	e5933000 	ldr	r3, [r3]
   14860:	e0011002 	and	r1, r1, r2
   14864:	e783100c 	str	r1, [r3, ip]
   14868:	e12fff1e 	bx	lr
   1486c:	e5933008 	ldr	r3, [r3, #8]
   14870:	e1530000 	cmp	r3, r0
   14874:	05932000 	ldreq	r2, [r3]
   14878:	059f3028 	ldreq	r3, [pc, #40]	; 148a8 <WriteThroughRegMask+0x8c>
   1487c:	05933000 	ldreq	r3, [r3]
   14880:	05832000 	streq	r2, [r3]
   14884:	e12fff1e 	bx	lr
   14888:	e59f301c 	ldr	r3, [pc, #28]	; 148ac <WriteThroughRegMask+0x90>
   1488c:	e5902000 	ldr	r2, [r0]
   14890:	e5933000 	ldr	r3, [r3]
   14894:	e783200c 	str	r2, [r3, ip]
   14898:	e12fff1e 	bx	lr
   1489c:	00015e28 	.word	0x00015e28
   148a0:	000003ff 	.word	0x000003ff
   148a4:	00015e74 	.word	0x00015e74
   148a8:	00015e78 	.word	0x00015e78
   148ac:	00015e70 	.word	0x00015e70

000148b0 <WriteThroughReg>:
   148b0:	e3a01000 	mov	r1, #0
   148b4:	eaffffd8 	b	1481c <WriteThroughRegMask>

000148b8 <ReadBackReg>:
   148b8:	e59f3088 	ldr	r3, [pc, #136]	; 14948 <ReadBackReg+0x90>
   148bc:	e5932000 	ldr	r2, [r3]
   148c0:	e59f1084 	ldr	r1, [pc, #132]	; 1494c <ReadBackReg+0x94>
   148c4:	e0622000 	rsb	r2, r2, r0
   148c8:	e1520001 	cmp	r2, r1
   148cc:	8a000006 	bhi	148ec <ReadBackReg+0x34>
   148d0:	e59f3078 	ldr	r3, [pc, #120]	; 14950 <ReadBackReg+0x98>
   148d4:	e3520044 	cmp	r2, #68	; 0x44
   148d8:	e5933000 	ldr	r3, [r3]
   148dc:	0a00000d 	beq	14918 <ReadBackReg+0x60>
   148e0:	e7933002 	ldr	r3, [r3, r2]
   148e4:	e5803000 	str	r3, [r0]
   148e8:	e12fff1e 	bx	lr
   148ec:	e5932004 	ldr	r2, [r3, #4]
   148f0:	e0622000 	rsb	r2, r2, r0
   148f4:	e1520001 	cmp	r2, r1
   148f8:	9a00000f 	bls	1493c <ReadBackReg+0x84>
   148fc:	e5933008 	ldr	r3, [r3, #8]
   14900:	e1530000 	cmp	r3, r0
   14904:	059f2048 	ldreq	r2, [pc, #72]	; 14954 <ReadBackReg+0x9c>
   14908:	05922000 	ldreq	r2, [r2]
   1490c:	05922000 	ldreq	r2, [r2]
   14910:	05832000 	streq	r2, [r3]
   14914:	e12fff1e 	bx	lr
   14918:	e5932044 	ldr	r2, [r3, #68]	; 0x44
   1491c:	e5802000 	str	r2, [r0]
   14920:	e5932048 	ldr	r2, [r3, #72]	; 0x48
   14924:	e5802004 	str	r2, [r0, #4]
   14928:	e593204c 	ldr	r2, [r3, #76]	; 0x4c
   1492c:	e5802008 	str	r2, [r0, #8]
   14930:	e5933050 	ldr	r3, [r3, #80]	; 0x50
   14934:	e580300c 	str	r3, [r0, #12]
   14938:	e12fff1e 	bx	lr
   1493c:	e59f3014 	ldr	r3, [pc, #20]	; 14958 <ReadBackReg+0xa0>
   14940:	e5933000 	ldr	r3, [r3]
   14944:	eaffffe5 	b	148e0 <ReadBackReg+0x28>
   14948:	00015e28 	.word	0x00015e28
   1494c:	000003ff 	.word	0x000003ff
   14950:	00015e70 	.word	0x00015e70
   14954:	00015e78 	.word	0x00015e78
   14958:	00015e74 	.word	0x00015e74

0001495c <ClearReg>:
   1495c:	e59f3058 	ldr	r3, [pc, #88]	; 149bc <ClearReg+0x60>
   14960:	e5931000 	ldr	r1, [r3]
   14964:	e59f2054 	ldr	r2, [pc, #84]	; 149c0 <ClearReg+0x64>
   14968:	e0611000 	rsb	r1, r1, r0
   1496c:	e1510002 	cmp	r1, r2
   14970:	8a000006 	bhi	14990 <ClearReg+0x34>
   14974:	e3a03000 	mov	r3, #0
   14978:	e3510044 	cmp	r1, #68	; 0x44
   1497c:	e5803000 	str	r3, [r0]
   14980:	05803004 	streq	r3, [r0, #4]
   14984:	05803008 	streq	r3, [r0, #8]
   14988:	0580300c 	streq	r3, [r0, #12]
   1498c:	e12fff1e 	bx	lr
   14990:	e5931004 	ldr	r1, [r3, #4]
   14994:	e0611000 	rsb	r1, r1, r0
   14998:	e1510002 	cmp	r1, r2
   1499c:	93a03000 	movls	r3, #0
   149a0:	95803000 	strls	r3, [r0]
   149a4:	912fff1e 	bxls	lr
   149a8:	e5933008 	ldr	r3, [r3, #8]
   149ac:	e1530000 	cmp	r3, r0
   149b0:	03a02000 	moveq	r2, #0
   149b4:	05832000 	streq	r2, [r3]
   149b8:	e12fff1e 	bx	lr
   149bc:	00015e28 	.word	0x00015e28
   149c0:	000003ff 	.word	0x000003ff

000149c4 <SetReg>:
   149c4:	e59f3084 	ldr	r3, [pc, #132]	; 14a50 <SetReg+0x8c>
   149c8:	e5931000 	ldr	r1, [r3]
   149cc:	e59f2080 	ldr	r2, [pc, #128]	; 14a54 <SetReg+0x90>
   149d0:	e0611000 	rsb	r1, r1, r0
   149d4:	e1510002 	cmp	r1, r2
   149d8:	8a000006 	bhi	149f8 <SetReg+0x34>
   149dc:	e3e03000 	mvn	r3, #0
   149e0:	e3510044 	cmp	r1, #68	; 0x44
   149e4:	e5803000 	str	r3, [r0]
   149e8:	05803004 	streq	r3, [r0, #4]
   149ec:	05803008 	streq	r3, [r0, #8]
   149f0:	0580300c 	streq	r3, [r0, #12]
   149f4:	e12fff1e 	bx	lr
   149f8:	e5931004 	ldr	r1, [r3, #4]
   149fc:	e0611000 	rsb	r1, r1, r0
   14a00:	e1510002 	cmp	r1, r2
   14a04:	8a00000a 	bhi	14a34 <SetReg+0x70>
   14a08:	e2413c01 	sub	r3, r1, #256	; 0x100
   14a0c:	e59f2044 	ldr	r2, [pc, #68]	; 14a58 <SetReg+0x94>
   14a10:	e2433001 	sub	r3, r3, #1
   14a14:	e1530002 	cmp	r3, r2
   14a18:	8a000002 	bhi	14a28 <SetReg+0x64>
   14a1c:	e201101f 	and	r1, r1, #31
   14a20:	e3510008 	cmp	r1, #8
   14a24:	0a000007 	beq	14a48 <SetReg+0x84>
   14a28:	e3e03000 	mvn	r3, #0
   14a2c:	e5803000 	str	r3, [r0]
   14a30:	e12fff1e 	bx	lr
   14a34:	e5933008 	ldr	r3, [r3, #8]
   14a38:	e1530000 	cmp	r3, r0
   14a3c:	03e02000 	mvneq	r2, #0
   14a40:	05832000 	streq	r2, [r3]
   14a44:	e12fff1e 	bx	lr
   14a48:	e59f300c 	ldr	r3, [pc, #12]	; 14a5c <SetReg+0x98>
   14a4c:	eafffff6 	b	14a2c <SetReg+0x68>
   14a50:	00015e28 	.word	0x00015e28
   14a54:	000003ff 	.word	0x000003ff
   14a58:	000001fe 	.word	0x000001fe
   14a5c:	00003fff 	.word	0x00003fff

00014a60 <HcdReset>:
   14a60:	e92d4038 	push	{r3, r4, r5, lr}
   14a64:	e59f50a0 	ldr	r5, [pc, #160]	; 14b0c <HcdReset+0xac>
   14a68:	e5950000 	ldr	r0, [r5]
   14a6c:	e2800010 	add	r0, r0, #16
   14a70:	ebffff90 	bl	148b8 <ReadBackReg>
   14a74:	e3a04601 	mov	r4, #1048576	; 0x100000
   14a78:	ea000002 	b	14a88 <HcdReset+0x28>
   14a7c:	ebffff8d 	bl	148b8 <ReadBackReg>
   14a80:	e2544001 	subs	r4, r4, #1
   14a84:	0a00001e 	beq	14b04 <HcdReset+0xa4>
   14a88:	e5953000 	ldr	r3, [r5]
   14a8c:	e5d32013 	ldrb	r2, [r3, #19]
   14a90:	e3120080 	tst	r2, #128	; 0x80
   14a94:	e2830010 	add	r0, r3, #16
   14a98:	0afffff7 	beq	14a7c <HcdReset+0x1c>
   14a9c:	e5d32010 	ldrb	r2, [r3, #16]
   14aa0:	e1a00003 	mov	r0, r3
   14aa4:	e3823001 	orr	r3, r2, #1
   14aa8:	e5e03010 	strb	r3, [r0, #16]!
   14aac:	ebffff7f 	bl	148b0 <WriteThroughReg>
   14ab0:	e59f3054 	ldr	r3, [pc, #84]	; 14b0c <HcdReset+0xac>
   14ab4:	e5930000 	ldr	r0, [r3]
   14ab8:	e2800010 	add	r0, r0, #16
   14abc:	ebffff7d 	bl	148b8 <ReadBackReg>
   14ac0:	e3a04601 	mov	r4, #1048576	; 0x100000
   14ac4:	ea000002 	b	14ad4 <HcdReset+0x74>
   14ac8:	ebffff7a 	bl	148b8 <ReadBackReg>
   14acc:	e2544001 	subs	r4, r4, #1
   14ad0:	0a00000b 	beq	14b04 <HcdReset+0xa4>
   14ad4:	e5953000 	ldr	r3, [r5]
   14ad8:	e5d32010 	ldrb	r2, [r3, #16]
   14adc:	e2122001 	ands	r2, r2, #1
   14ae0:	e2830010 	add	r0, r3, #16
   14ae4:	1afffff7 	bne	14ac8 <HcdReset+0x68>
   14ae8:	e5d33013 	ldrb	r3, [r3, #19]
   14aec:	e3130080 	tst	r3, #128	; 0x80
   14af0:	0afffff4 	beq	14ac8 <HcdReset+0x68>
   14af4:	e1a00c02 	lsl	r0, r2, #24
   14af8:	e1a00c40 	asr	r0, r0, #24
   14afc:	e8bd4038 	pop	{r3, r4, r5, lr}
   14b00:	e12fff1e 	bx	lr
   14b04:	e3a020fc 	mov	r2, #252	; 0xfc
   14b08:	eafffff9 	b	14af4 <HcdReset+0x94>
   14b0c:	00015e28 	.word	0x00015e28

00014b10 <HcdTransmitFifoFlush>:
   14b10:	e92d4038 	push	{r3, r4, r5, lr}
   14b14:	e59f5084 	ldr	r5, [pc, #132]	; 14ba0 <HcdTransmitFifoFlush+0x90>
   14b18:	e5953000 	ldr	r3, [r5]
   14b1c:	e1a04000 	mov	r4, r0
   14b20:	e2830010 	add	r0, r3, #16
   14b24:	ebffff8c 	bl	1495c <ClearReg>
   14b28:	e5953000 	ldr	r3, [r5]
   14b2c:	e5d32010 	ldrb	r2, [r3, #16]
   14b30:	e204401f 	and	r4, r4, #31
   14b34:	e3c22d1f 	bic	r2, r2, #1984	; 0x7c0
   14b38:	e1824304 	orr	r4, r2, r4, lsl #6
   14b3c:	e5c34010 	strb	r4, [r3, #16]
   14b40:	e5d32010 	ldrb	r2, [r3, #16]
   14b44:	e1a00003 	mov	r0, r3
   14b48:	e3823020 	orr	r3, r2, #32
   14b4c:	e5e03010 	strb	r3, [r0, #16]!
   14b50:	ebffff56 	bl	148b0 <WriteThroughReg>
   14b54:	e5950000 	ldr	r0, [r5]
   14b58:	e2800010 	add	r0, r0, #16
   14b5c:	ebffff55 	bl	148b8 <ReadBackReg>
   14b60:	e3a04601 	mov	r4, #1048576	; 0x100000
   14b64:	ea000002 	b	14b74 <HcdTransmitFifoFlush+0x64>
   14b68:	ebffff52 	bl	148b8 <ReadBackReg>
   14b6c:	e2544001 	subs	r4, r4, #1
   14b70:	0a000008 	beq	14b98 <HcdTransmitFifoFlush+0x88>
   14b74:	e5950000 	ldr	r0, [r5]
   14b78:	e5d03010 	ldrb	r3, [r0, #16]
   14b7c:	e2133020 	ands	r3, r3, #32
   14b80:	e2800010 	add	r0, r0, #16
   14b84:	1afffff7 	bne	14b68 <HcdTransmitFifoFlush+0x58>
   14b88:	e1a00c03 	lsl	r0, r3, #24
   14b8c:	e1a00c40 	asr	r0, r0, #24
   14b90:	e8bd4038 	pop	{r3, r4, r5, lr}
   14b94:	e12fff1e 	bx	lr
   14b98:	e3a030fc 	mov	r3, #252	; 0xfc
   14b9c:	eafffff9 	b	14b88 <HcdTransmitFifoFlush+0x78>
   14ba0:	00015e28 	.word	0x00015e28

00014ba4 <HcdReceiveFifoFlush>:
   14ba4:	e92d4038 	push	{r3, r4, r5, lr}
   14ba8:	e59f5068 	ldr	r5, [pc, #104]	; 14c18 <HcdReceiveFifoFlush+0x74>
   14bac:	e5950000 	ldr	r0, [r5]
   14bb0:	e2800010 	add	r0, r0, #16
   14bb4:	ebffff68 	bl	1495c <ClearReg>
   14bb8:	e5950000 	ldr	r0, [r5]
   14bbc:	e5d03010 	ldrb	r3, [r0, #16]
   14bc0:	e3833010 	orr	r3, r3, #16
   14bc4:	e5e03010 	strb	r3, [r0, #16]!
   14bc8:	ebffff38 	bl	148b0 <WriteThroughReg>
   14bcc:	e5950000 	ldr	r0, [r5]
   14bd0:	e2800010 	add	r0, r0, #16
   14bd4:	ebffff37 	bl	148b8 <ReadBackReg>
   14bd8:	e3a04601 	mov	r4, #1048576	; 0x100000
   14bdc:	ea000002 	b	14bec <HcdReceiveFifoFlush+0x48>
   14be0:	ebffff34 	bl	148b8 <ReadBackReg>
   14be4:	e2544001 	subs	r4, r4, #1
   14be8:	0a000008 	beq	14c10 <HcdReceiveFifoFlush+0x6c>
   14bec:	e5950000 	ldr	r0, [r5]
   14bf0:	e5d03010 	ldrb	r3, [r0, #16]
   14bf4:	e2133010 	ands	r3, r3, #16
   14bf8:	e2800010 	add	r0, r0, #16
   14bfc:	1afffff7 	bne	14be0 <HcdReceiveFifoFlush+0x3c>
   14c00:	e1a00c03 	lsl	r0, r3, #24
   14c04:	e1a00c40 	asr	r0, r0, #24
   14c08:	e8bd4038 	pop	{r3, r4, r5, lr}
   14c0c:	e12fff1e 	bx	lr
   14c10:	e3a030fc 	mov	r3, #252	; 0xfc
   14c14:	eafffff9 	b	14c00 <HcdReceiveFifoFlush+0x5c>
   14c18:	00015e28 	.word	0x00015e28

00014c1c <HcdPrepareChannel>:
   14c1c:	e92d4ff0 	push	{r4, r5, r6, r7, r8, r9, sl, fp, lr}
   14c20:	e59fb308 	ldr	fp, [pc, #776]	; 14f30 <HcdPrepareChannel+0x314>
   14c24:	e59bc000 	ldr	ip, [fp]
   14c28:	e59cc048 	ldr	ip, [ip, #72]	; 0x48
   14c2c:	e1a0c72c 	lsr	ip, ip, #14
   14c30:	e20cc00f 	and	ip, ip, #15
   14c34:	e151000c 	cmp	r1, ip
   14c38:	e24dd00c 	sub	sp, sp, #12
   14c3c:	e1a04001 	mov	r4, r1
   14c40:	e1a0a000 	mov	sl, r0
   14c44:	e1a07002 	mov	r7, r2
   14c48:	e1a08003 	mov	r8, r3
   14c4c:	ca0000b5 	bgt	14f28 <HcdPrepareChannel+0x30c>
   14c50:	e1a05281 	lsl	r5, r1, #5
   14c54:	e59b0004 	ldr	r0, [fp, #4]
   14c58:	e2856f42 	add	r6, r5, #264	; 0x108
   14c5c:	e0800006 	add	r0, r0, r6
   14c60:	ebffff57 	bl	149c4 <SetReg>
   14c64:	e59b0004 	ldr	r0, [fp, #4]
   14c68:	e0800006 	add	r0, r0, r6
   14c6c:	ebffff0f 	bl	148b0 <WriteThroughReg>
   14c70:	e2844008 	add	r4, r4, #8
   14c74:	e59b0004 	ldr	r0, [fp, #4]
   14c78:	e1a06284 	lsl	r6, r4, #5
   14c7c:	e0800006 	add	r0, r0, r6
   14c80:	ebffff35 	bl	1495c <ClearReg>
   14c84:	e59b1004 	ldr	r1, [fp, #4]
   14c88:	e5dd2031 	ldrb	r2, [sp, #49]	; 0x31
   14c8c:	e7913284 	ldr	r3, [r1, r4, lsl #5]
   14c90:	e202207f 	and	r2, r2, #127	; 0x7f
   14c94:	e3c3357f 	bic	r3, r3, #532676608	; 0x1fc00000
   14c98:	e1833b02 	orr	r3, r3, r2, lsl #22
   14c9c:	e7813284 	str	r3, [r1, r4, lsl #5]
   14ca0:	e7912284 	ldr	r2, [r1, r4, lsl #5]
   14ca4:	e5dd3030 	ldrb	r3, [sp, #48]	; 0x30
   14ca8:	e3c22b1e 	bic	r2, r2, #30720	; 0x7800
   14cac:	e1a03223 	lsr	r3, r3, #4
   14cb0:	e1823583 	orr	r3, r2, r3, lsl #11
   14cb4:	e7813284 	str	r3, [r1, r4, lsl #5]
   14cb8:	e0813006 	add	r3, r1, r6
   14cbc:	e5dd2032 	ldrb	r2, [sp, #50]	; 0x32
   14cc0:	e5d30001 	ldrb	r0, [r3, #1]
   14cc4:	e1a02282 	lsl	r2, r2, #5
   14cc8:	e3c00080 	bic	r0, r0, #128	; 0x80
   14ccc:	e2022080 	and	r2, r2, #128	; 0x80
   14cd0:	e1822000 	orr	r2, r2, r0
   14cd4:	e5c32001 	strb	r2, [r3, #1]
   14cd8:	e5dd2030 	ldrb	r2, [sp, #48]	; 0x30
   14cdc:	e202200c 	and	r2, r2, #12
   14ce0:	e5d30002 	ldrb	r0, [r3, #2]
   14ce4:	e252c008 	subs	ip, r2, #8
   14ce8:	e27c9000 	rsbs	r9, ip, #0
   14cec:	e0b9900c 	adcs	r9, r9, ip
   14cf0:	e3c00002 	bic	r0, r0, #2
   14cf4:	e1800089 	orr	r0, r0, r9, lsl #1
   14cf8:	e5c30002 	strb	r0, [r3, #2]
   14cfc:	e5d30002 	ldrb	r0, [r3, #2]
   14d00:	e5ddc032 	ldrb	ip, [sp, #50]	; 0x32
   14d04:	e3c0000c 	bic	r0, r0, #12
   14d08:	e20cc003 	and	ip, ip, #3
   14d0c:	e180010c 	orr	r0, r0, ip, lsl #2
   14d10:	e5c30002 	strb	r0, [r3, #2]
   14d14:	e5dd3030 	ldrb	r3, [sp, #48]	; 0x30
   14d18:	e2133003 	ands	r3, r3, #3
   14d1c:	e20990ff 	and	r9, r9, #255	; 0xff
   14d20:	03a03008 	moveq	r3, #8
   14d24:	0a000005 	beq	14d40 <HcdPrepareChannel+0x124>
   14d28:	e3530001 	cmp	r3, #1
   14d2c:	03a03010 	moveq	r3, #16
   14d30:	0a000002 	beq	14d40 <HcdPrepareChannel+0x124>
   14d34:	e3530002 	cmp	r3, #2
   14d38:	13a03040 	movne	r3, #64	; 0x40
   14d3c:	03a03020 	moveq	r3, #32
   14d40:	e7910284 	ldr	r0, [r1, r4, lsl #5]
   14d44:	e3c00e7f 	bic	r0, r0, #2032	; 0x7f0
   14d48:	e3c0000f 	bic	r0, r0, #15
   14d4c:	e1803003 	orr	r3, r0, r3
   14d50:	e7813284 	str	r3, [r1, r4, lsl #5]
   14d54:	e1a06284 	lsl	r6, r4, #5
   14d58:	e0811006 	add	r1, r1, r6
   14d5c:	e5d13003 	ldrb	r3, [r1, #3]
   14d60:	e3c33080 	bic	r3, r3, #128	; 0x80
   14d64:	e5c13003 	strb	r3, [r1, #3]
   14d68:	e5d13003 	ldrb	r3, [r1, #3]
   14d6c:	e3c33040 	bic	r3, r3, #64	; 0x40
   14d70:	e5c13003 	strb	r3, [r1, #3]
   14d74:	e1a00001 	mov	r0, r1
   14d78:	e58d2004 	str	r2, [sp, #4]
   14d7c:	ebfffecb 	bl	148b0 <WriteThroughReg>
   14d80:	e59b0004 	ldr	r0, [fp, #4]
   14d84:	e0800006 	add	r0, r0, r6
   14d88:	e2800004 	add	r0, r0, #4
   14d8c:	ebfffef2 	bl	1495c <ClearReg>
   14d90:	e59d2004 	ldr	r2, [sp, #4]
   14d94:	e59fb194 	ldr	fp, [pc, #404]	; 14f30 <HcdPrepareChannel+0x314>
   14d98:	e3520000 	cmp	r2, #0
   14d9c:	e59b3004 	ldr	r3, [fp, #4]
   14da0:	1a000036 	bne	14e80 <HcdPrepareChannel+0x264>
   14da4:	e0830006 	add	r0, r3, r6
   14da8:	e2800004 	add	r0, r0, #4
   14dac:	ebfffebf 	bl	148b0 <WriteThroughReg>
   14db0:	e59b0004 	ldr	r0, [fp, #4]
   14db4:	e2853e11 	add	r3, r5, #272	; 0x110
   14db8:	e0800003 	add	r0, r0, r3
   14dbc:	ebfffee6 	bl	1495c <ClearReg>
   14dc0:	e59b6004 	ldr	r6, [fp, #4]
   14dc4:	e0862005 	add	r2, r6, r5
   14dc8:	e5921110 	ldr	r1, [r2, #272]	; 0x110
   14dcc:	e3c734ff 	bic	r3, r7, #-16777216	; 0xff000000
   14dd0:	e3c3373e 	bic	r3, r3, #16252928	; 0xf80000
   14dd4:	e1a019a1 	lsr	r1, r1, #19
   14dd8:	e1833981 	orr	r3, r3, r1, lsl #19
   14ddc:	e5823110 	str	r3, [r2, #272]	; 0x110
   14de0:	e7960284 	ldr	r0, [r6, r4, lsl #5]
   14de4:	e7961284 	ldr	r1, [r6, r4, lsl #5]
   14de8:	e1a00a80 	lsl	r0, r0, #21
   14dec:	e1a00aa0 	lsr	r0, r0, #21
   14df0:	e1a01a81 	lsl	r1, r1, #21
   14df4:	e2400001 	sub	r0, r0, #1
   14df8:	e0800007 	add	r0, r0, r7
   14dfc:	e1a01aa1 	lsr	r1, r1, #21
   14e00:	eb000634 	bl	166d8 <__aeabi_uidiv>
   14e04:	e0863005 	add	r3, r6, r5
   14e08:	e5932110 	ldr	r2, [r3, #272]	; 0x110
   14e0c:	e3c2257f 	bic	r2, r2, #532676608	; 0x1fc00000
   14e10:	e1a00b00 	lsl	r0, r0, #22
   14e14:	e3c2270e 	bic	r2, r2, #3670016	; 0x380000
   14e18:	e18221a0 	orr	r2, r2, r0, lsr #3
   14e1c:	e5832110 	str	r2, [r3, #272]	; 0x110
   14e20:	e0863005 	add	r3, r6, r5
   14e24:	e5932110 	ldr	r2, [r3, #272]	; 0x110
   14e28:	e1a02182 	lsl	r2, r2, #3
   14e2c:	e1b02b22 	lsrs	r2, r2, #22
   14e30:	05932110 	ldreq	r2, [r3, #272]	; 0x110
   14e34:	03c2257f 	biceq	r2, r2, #532676608	; 0x1fc00000
   14e38:	03c2270e 	biceq	r2, r2, #3670016	; 0x380000
   14e3c:	03822702 	orreq	r2, r2, #524288	; 0x80000
   14e40:	05832110 	streq	r2, [r3, #272]	; 0x110
   14e44:	e0863005 	add	r3, r6, r5
   14e48:	e5d32113 	ldrb	r2, [r3, #275]	; 0x113
   14e4c:	e2088003 	and	r8, r8, #3
   14e50:	e3c22060 	bic	r2, r2, #96	; 0x60
   14e54:	e1828288 	orr	r8, r2, r8, lsl #5
   14e58:	e2850e11 	add	r0, r5, #272	; 0x110
   14e5c:	e0860000 	add	r0, r6, r0
   14e60:	e5c38113 	strb	r8, [r3, #275]	; 0x113
   14e64:	ebfffe91 	bl	148b0 <WriteThroughReg>
   14e68:	e3a00000 	mov	r0, #0
   14e6c:	e1a00c00 	lsl	r0, r0, #24
   14e70:	e1a00c40 	asr	r0, r0, #24
   14e74:	e28dd00c 	add	sp, sp, #12
   14e78:	e8bd4ff0 	pop	{r4, r5, r6, r7, r8, r9, sl, fp, lr}
   14e7c:	e12fff1e 	bx	lr
   14e80:	e0836006 	add	r6, r3, r6
   14e84:	e2860004 	add	r0, r6, #4
   14e88:	e5d03003 	ldrb	r3, [r0, #3]
   14e8c:	e3833080 	orr	r3, r3, #128	; 0x80
   14e90:	e5c03003 	strb	r3, [r0, #3]
   14e94:	e59a33fc 	ldr	r3, [sl, #1020]	; 0x3fc
   14e98:	e5962004 	ldr	r2, [r6, #4]
   14e9c:	e5933000 	ldr	r3, [r3]
   14ea0:	e3c22dfe 	bic	r2, r2, #16256	; 0x3f80
   14ea4:	e203307f 	and	r3, r3, #127	; 0x7f
   14ea8:	e1823383 	orr	r3, r2, r3, lsl #7
   14eac:	e5863004 	str	r3, [r6, #4]
   14eb0:	e5d63004 	ldrb	r3, [r6, #4]
   14eb4:	e5da2007 	ldrb	r2, [sl, #7]
   14eb8:	e3c3307f 	bic	r3, r3, #127	; 0x7f
   14ebc:	e202207f 	and	r2, r2, #127	; 0x7f
   14ec0:	e1833002 	orr	r3, r3, r2
   14ec4:	e5c63004 	strb	r3, [r6, #4]
   14ec8:	ebfffe78 	bl	148b0 <WriteThroughReg>
   14ecc:	e59b0004 	ldr	r0, [fp, #4]
   14ed0:	e2853e11 	add	r3, r5, #272	; 0x110
   14ed4:	e0800003 	add	r0, r0, r3
   14ed8:	ebfffe9f 	bl	1495c <ClearReg>
   14edc:	e59b6004 	ldr	r6, [fp, #4]
   14ee0:	e0863005 	add	r3, r6, r5
   14ee4:	e5931110 	ldr	r1, [r3, #272]	; 0x110
   14ee8:	e3c724ff 	bic	r2, r7, #-16777216	; 0xff000000
   14eec:	e3c2273e 	bic	r2, r2, #16252928	; 0xf80000
   14ef0:	e1a019a1 	lsr	r1, r1, #19
   14ef4:	e1822981 	orr	r2, r2, r1, lsl #19
   14ef8:	e3590000 	cmp	r9, #0
   14efc:	e5832110 	str	r2, [r3, #272]	; 0x110
   14f00:	0affffb6 	beq	14de0 <HcdPrepareChannel+0x1c4>
   14f04:	e5932110 	ldr	r2, [r3, #272]	; 0x110
   14f08:	e2877007 	add	r7, r7, #7
   14f0c:	e1a07987 	lsl	r7, r7, #19
   14f10:	e3c2257f 	bic	r2, r2, #532676608	; 0x1fc00000
   14f14:	e1a07b27 	lsr	r7, r7, #22
   14f18:	e3c2270e 	bic	r2, r2, #3670016	; 0x380000
   14f1c:	e1822987 	orr	r2, r2, r7, lsl #19
   14f20:	e5832110 	str	r2, [r3, #272]	; 0x110
   14f24:	eaffffbd 	b	14e20 <HcdPrepareChannel+0x204>
   14f28:	e3a000fe 	mov	r0, #254	; 0xfe
   14f2c:	eaffffce 	b	14e6c <HcdPrepareChannel+0x250>
   14f30:	00015e28 	.word	0x00015e28

00014f34 <HcdTransmitChannel>:
   14f34:	e92d41f0 	push	{r4, r5, r6, r7, r8, lr}
   14f38:	e59f409c 	ldr	r4, [pc, #156]	; 14fdc <HcdTransmitChannel+0xa8>
   14f3c:	e2806008 	add	r6, r0, #8
   14f40:	e1a07000 	mov	r7, r0
   14f44:	e5940004 	ldr	r0, [r4, #4]
   14f48:	e1a05286 	lsl	r5, r6, #5
   14f4c:	e0800005 	add	r0, r0, r5
   14f50:	e2800004 	add	r0, r0, #4
   14f54:	e1a08001 	mov	r8, r1
   14f58:	ebfffe56 	bl	148b8 <ReadBackReg>
   14f5c:	e5943004 	ldr	r3, [r4, #4]
   14f60:	e0833005 	add	r3, r3, r5
   14f64:	e5d32006 	ldrb	r2, [r3, #6]
   14f68:	e2833004 	add	r3, r3, #4
   14f6c:	e3c22001 	bic	r2, r2, #1
   14f70:	e1a00003 	mov	r0, r3
   14f74:	e5c32002 	strb	r2, [r3, #2]
   14f78:	ebfffe4c 	bl	148b0 <WriteThroughReg>
   14f7c:	e5940004 	ldr	r0, [r4, #4]
   14f80:	e1a07287 	lsl	r7, r7, #5
   14f84:	e0803007 	add	r3, r0, r7
   14f88:	e5932114 	ldr	r2, [r3, #276]	; 0x114
   14f8c:	e2830f45 	add	r0, r3, #276	; 0x114
   14f90:	e5838114 	str	r8, [r3, #276]	; 0x114
   14f94:	ebfffe45 	bl	148b0 <WriteThroughReg>
   14f98:	e5940004 	ldr	r0, [r4, #4]
   14f9c:	e0800005 	add	r0, r0, r5
   14fa0:	ebfffe44 	bl	148b8 <ReadBackReg>
   14fa4:	e5940004 	ldr	r0, [r4, #4]
   14fa8:	e7903286 	ldr	r3, [r0, r6, lsl #5]
   14fac:	e3c33603 	bic	r3, r3, #3145728	; 0x300000
   14fb0:	e3833601 	orr	r3, r3, #1048576	; 0x100000
   14fb4:	e7803286 	str	r3, [r0, r6, lsl #5]
   14fb8:	e0800005 	add	r0, r0, r5
   14fbc:	e5d03003 	ldrb	r3, [r0, #3]
   14fc0:	e3833080 	orr	r3, r3, #128	; 0x80
   14fc4:	e5c03003 	strb	r3, [r0, #3]
   14fc8:	e5d03003 	ldrb	r3, [r0, #3]
   14fcc:	e3c33040 	bic	r3, r3, #64	; 0x40
   14fd0:	e5c03003 	strb	r3, [r0, #3]
   14fd4:	e8bd41f0 	pop	{r4, r5, r6, r7, r8, lr}
   14fd8:	eafffe34 	b	148b0 <WriteThroughReg>
   14fdc:	00015e28 	.word	0x00015e28

00014fe0 <HcdChannelInterruptToError>:
   14fe0:	e20130ff 	and	r3, r1, #255	; 0xff
   14fe4:	e3130004 	tst	r3, #4
   14fe8:	e24dd008 	sub	sp, sp, #8
   14fec:	13a03c01 	movne	r3, #256	; 0x100
   14ff0:	e58d1004 	str	r1, [sp, #4]
   14ff4:	13a0c0fc 	movne	ip, #252	; 0xfc
   14ff8:	15803008 	strne	r3, [r0, #8]
   14ffc:	1a00002a 	bne	150ac <HcdChannelInterruptToError+0xcc>
   15000:	e3130008 	tst	r3, #8
   15004:	13a03002 	movne	r3, #2
   15008:	15803008 	strne	r3, [r0, #8]
   1500c:	13a0c0fc 	movne	ip, #252	; 0xfc
   15010:	1a000025 	bne	150ac <HcdChannelInterruptToError+0xcc>
   15014:	e3130010 	tst	r3, #16
   15018:	13a03010 	movne	r3, #16
   1501c:	15803008 	strne	r3, [r0, #8]
   15020:	13a0c0fc 	movne	ip, #252	; 0xfc
   15024:	1a000020 	bne	150ac <HcdChannelInterruptToError+0xcc>
   15028:	e3130020 	tst	r3, #32
   1502c:	03a0c0f8 	moveq	ip, #248	; 0xf8
   15030:	13a0c000 	movne	ip, #0
   15034:	e3130040 	tst	r3, #64	; 0x40
   15038:	13a03c02 	movne	r3, #512	; 0x200
   1503c:	15803008 	strne	r3, [r0, #8]
   15040:	13a0c0fc 	movne	ip, #252	; 0xfc
   15044:	1a000018 	bne	150ac <HcdChannelInterruptToError+0xcc>
   15048:	e5dd1005 	ldrb	r1, [sp, #5]
   1504c:	e3110001 	tst	r1, #1
   15050:	13a03008 	movne	r3, #8
   15054:	15803008 	strne	r3, [r0, #8]
   15058:	13a0c0fc 	movne	ip, #252	; 0xfc
   1505c:	1a000012 	bne	150ac <HcdChannelInterruptToError+0xcc>
   15060:	e3110002 	tst	r1, #2
   15064:	13a03004 	movne	r3, #4
   15068:	15803008 	strne	r3, [r0, #8]
   1506c:	13a0c0fc 	movne	ip, #252	; 0xfc
   15070:	1a00000d 	bne	150ac <HcdChannelInterruptToError+0xcc>
   15074:	e3130080 	tst	r3, #128	; 0x80
   15078:	13a03080 	movne	r3, #128	; 0x80
   1507c:	15803008 	strne	r3, [r0, #8]
   15080:	13a0c0fc 	movne	ip, #252	; 0xfc
   15084:	1a000008 	bne	150ac <HcdChannelInterruptToError+0xcc>
   15088:	e3110004 	tst	r1, #4
   1508c:	13a03040 	movne	r3, #64	; 0x40
   15090:	15803008 	strne	r3, [r0, #8]
   15094:	13a0c0fc 	movne	ip, #252	; 0xfc
   15098:	1a000003 	bne	150ac <HcdChannelInterruptToError+0xcc>
   1509c:	e3130001 	tst	r3, #1
   150a0:	1a000001 	bne	150ac <HcdChannelInterruptToError+0xcc>
   150a4:	e3520000 	cmp	r2, #0
   150a8:	13a0c0f8 	movne	ip, #248	; 0xf8
   150ac:	e1a00c0c 	lsl	r0, ip, #24
   150b0:	e1a00c40 	asr	r0, r0, #24
   150b4:	e28dd008 	add	sp, sp, #8
   150b8:	e12fff1e 	bx	lr

000150bc <HcdChannelSendWaitOne>:
   150bc:	e92d4ff0 	push	{r4, r5, r6, r7, r8, r9, sl, fp, lr}
   150c0:	e24dd01c 	sub	sp, sp, #28
   150c4:	e1a07282 	lsl	r7, r2, #5
   150c8:	e2828008 	add	r8, r2, #8
   150cc:	e1a09002 	mov	r9, r2
   150d0:	e59d2044 	ldr	r2, [sp, #68]	; 0x44
   150d4:	e3a0a000 	mov	sl, #0
   150d8:	e0832002 	add	r2, r3, r2
   150dc:	e58d1014 	str	r1, [sp, #20]
   150e0:	e59f4284 	ldr	r4, [pc, #644]	; 1536c <HcdChannelSendWaitOne+0x2b0>
   150e4:	e58d000c 	str	r0, [sp, #12]
   150e8:	e58d2008 	str	r2, [sp, #8]
   150ec:	e58da004 	str	sl, [sp, #4]
   150f0:	e2876f42 	add	r6, r7, #264	; 0x108
   150f4:	e287be11 	add	fp, r7, #272	; 0x110
   150f8:	e1a08288 	lsl	r8, r8, #5
   150fc:	e5940004 	ldr	r0, [r4, #4]
   15100:	e0800006 	add	r0, r0, r6
   15104:	ebfffe2e 	bl	149c4 <SetReg>
   15108:	e5940004 	ldr	r0, [r4, #4]
   1510c:	e0800006 	add	r0, r0, r6
   15110:	ebfffde6 	bl	148b0 <WriteThroughReg>
   15114:	e5940004 	ldr	r0, [r4, #4]
   15118:	e080000b 	add	r0, r0, fp
   1511c:	ebfffde5 	bl	148b8 <ReadBackReg>
   15120:	e5940004 	ldr	r0, [r4, #4]
   15124:	e0800008 	add	r0, r0, r8
   15128:	e2800004 	add	r0, r0, #4
   1512c:	ebfffde1 	bl	148b8 <ReadBackReg>
   15130:	e1a00009 	mov	r0, r9
   15134:	e59d1008 	ldr	r1, [sp, #8]
   15138:	ebffff7d 	bl	14f34 <HcdTransmitChannel>
   1513c:	e59f522c 	ldr	r5, [pc, #556]	; 15370 <HcdChannelSendWaitOne+0x2b4>
   15140:	ea000002 	b	15150 <HcdChannelSendWaitOne+0x94>
   15144:	eb00057e 	bl	16744 <MicroDelay>
   15148:	e2555001 	subs	r5, r5, #1
   1514c:	0a00005d 	beq	152c8 <HcdChannelSendWaitOne+0x20c>
   15150:	e5940004 	ldr	r0, [r4, #4]
   15154:	e0800006 	add	r0, r0, r6
   15158:	ebfffdd6 	bl	148b8 <ReadBackReg>
   1515c:	e5943004 	ldr	r3, [r4, #4]
   15160:	e0832007 	add	r2, r3, r7
   15164:	e5d22108 	ldrb	r2, [r2, #264]	; 0x108
   15168:	e3120002 	tst	r2, #2
   1516c:	e3a0000a 	mov	r0, #10
   15170:	0afffff3 	beq	15144 <HcdChannelSendWaitOne+0x88>
   15174:	e083000b 	add	r0, r3, fp
   15178:	ebfffdce 	bl	148b8 <ReadBackReg>
   1517c:	e59f31e8 	ldr	r3, [pc, #488]	; 1536c <HcdChannelSendWaitOne+0x2b0>
   15180:	e5932004 	ldr	r2, [r3, #4]
   15184:	e0823008 	add	r3, r2, r8
   15188:	e5d31007 	ldrb	r1, [r3, #7]
   1518c:	e1b013a1 	lsrs	r1, r1, #7
   15190:	e2833007 	add	r3, r3, #7
   15194:	0a00006a 	beq	15344 <HcdChannelSendWaitOne+0x288>
   15198:	e0823007 	add	r3, r2, r7
   1519c:	e5d31108 	ldrb	r1, [r3, #264]	; 0x108
   151a0:	e3110020 	tst	r1, #32
   151a4:	0a00003b 	beq	15298 <HcdChannelSendWaitOne+0x1dc>
   151a8:	e3a03003 	mov	r3, #3
   151ac:	e58da010 	str	sl, [sp, #16]
   151b0:	e1a0a003 	mov	sl, r3
   151b4:	e0820006 	add	r0, r2, r6
   151b8:	ebfffe01 	bl	149c4 <SetReg>
   151bc:	e5940004 	ldr	r0, [r4, #4]
   151c0:	e0800006 	add	r0, r0, r6
   151c4:	ebfffdb9 	bl	148b0 <WriteThroughReg>
   151c8:	e5940004 	ldr	r0, [r4, #4]
   151cc:	e0800008 	add	r0, r0, r8
   151d0:	e2800004 	add	r0, r0, #4
   151d4:	ebfffdb7 	bl	148b8 <ReadBackReg>
   151d8:	e5943004 	ldr	r3, [r4, #4]
   151dc:	e0833008 	add	r3, r3, r8
   151e0:	e5d32006 	ldrb	r2, [r3, #6]
   151e4:	e2833004 	add	r3, r3, #4
   151e8:	e3822001 	orr	r2, r2, #1
   151ec:	e1a00003 	mov	r0, r3
   151f0:	e5c32002 	strb	r2, [r3, #2]
   151f4:	ebfffdad 	bl	148b0 <WriteThroughReg>
   151f8:	e5940004 	ldr	r0, [r4, #4]
   151fc:	e0800008 	add	r0, r0, r8
   15200:	e5d03003 	ldrb	r3, [r0, #3]
   15204:	e3833080 	orr	r3, r3, #128	; 0x80
   15208:	e5c03003 	strb	r3, [r0, #3]
   1520c:	e5d03003 	ldrb	r3, [r0, #3]
   15210:	e3c33040 	bic	r3, r3, #64	; 0x40
   15214:	e5c03003 	strb	r3, [r0, #3]
   15218:	ebfffda4 	bl	148b0 <WriteThroughReg>
   1521c:	e59f514c 	ldr	r5, [pc, #332]	; 15370 <HcdChannelSendWaitOne+0x2b4>
   15220:	ea000002 	b	15230 <HcdChannelSendWaitOne+0x174>
   15224:	eb000546 	bl	16744 <MicroDelay>
   15228:	e2555001 	subs	r5, r5, #1
   1522c:	0a000025 	beq	152c8 <HcdChannelSendWaitOne+0x20c>
   15230:	e5940004 	ldr	r0, [r4, #4]
   15234:	e0800006 	add	r0, r0, r6
   15238:	ebfffd9e 	bl	148b8 <ReadBackReg>
   1523c:	e5942004 	ldr	r2, [r4, #4]
   15240:	e0823007 	add	r3, r2, r7
   15244:	e5d31108 	ldrb	r1, [r3, #264]	; 0x108
   15248:	e3110002 	tst	r1, #2
   1524c:	e3a00064 	mov	r0, #100	; 0x64
   15250:	e2833f42 	add	r3, r3, #264	; 0x108
   15254:	0afffff2 	beq	15224 <HcdChannelSendWaitOne+0x168>
   15258:	e5d31000 	ldrb	r1, [r3]
   1525c:	e3110040 	tst	r1, #64	; 0x40
   15260:	0a00002a 	beq	15310 <HcdChannelSendWaitOne+0x254>
   15264:	e25aa001 	subs	sl, sl, #1
   15268:	1affffd1 	bne	151b4 <HcdChannelSendWaitOne+0xf8>
   1526c:	e59f0100 	ldr	r0, [pc, #256]	; 15374 <HcdChannelSendWaitOne+0x2b8>
   15270:	e59da010 	ldr	sl, [sp, #16]
   15274:	eb000532 	bl	16744 <MicroDelay>
   15278:	e59d3004 	ldr	r3, [sp, #4]
   1527c:	e28aa001 	add	sl, sl, #1
   15280:	e2833001 	add	r3, r3, #1
   15284:	e3530002 	cmp	r3, #2
   15288:	935a0009 	cmpls	sl, #9
   1528c:	e58d3004 	str	r3, [sp, #4]
   15290:	9affff99 	bls	150fc <HcdChannelSendWaitOne+0x40>
   15294:	ea000005 	b	152b0 <HcdChannelSendWaitOne+0x1f4>
   15298:	e5d32108 	ldrb	r2, [r3, #264]	; 0x108
   1529c:	e3120010 	tst	r2, #16
   152a0:	1a000011 	bne	152ec <HcdChannelSendWaitOne+0x230>
   152a4:	e5d33108 	ldrb	r3, [r3, #264]	; 0x108
   152a8:	e1b033a3 	lsrs	r3, r3, #7
   152ac:	1a000014 	bne	15304 <HcdChannelSendWaitOne+0x248>
   152b0:	e59d3004 	ldr	r3, [sp, #4]
   152b4:	e3530003 	cmp	r3, #3
   152b8:	135a000a 	cmpne	sl, #10
   152bc:	13a00000 	movne	r0, #0
   152c0:	03a00001 	moveq	r0, #1
   152c4:	1a000003 	bne	152d8 <HcdChannelSendWaitOne+0x21c>
   152c8:	e59d200c 	ldr	r2, [sp, #12]
   152cc:	e3a03080 	mov	r3, #128	; 0x80
   152d0:	e5823008 	str	r3, [r2, #8]
   152d4:	e3a000f8 	mov	r0, #248	; 0xf8
   152d8:	e1a00c00 	lsl	r0, r0, #24
   152dc:	e1a00c40 	asr	r0, r0, #24
   152e0:	e28dd01c 	add	sp, sp, #28
   152e4:	e8bd4ff0 	pop	{r4, r5, r6, r7, r8, r9, sl, fp, lr}
   152e8:	e12fff1e 	bx	lr
   152ec:	e59d3004 	ldr	r3, [sp, #4]
   152f0:	e59f007c 	ldr	r0, [pc, #124]	; 15374 <HcdChannelSendWaitOne+0x2b8>
   152f4:	e2433001 	sub	r3, r3, #1
   152f8:	e58d3004 	str	r3, [sp, #4]
   152fc:	eb000510 	bl	16744 <MicroDelay>
   15300:	eaffffdc 	b	15278 <HcdChannelSendWaitOne+0x1bc>
   15304:	e59f0068 	ldr	r0, [pc, #104]	; 15374 <HcdChannelSendWaitOne+0x2b8>
   15308:	eb00050d 	bl	16744 <MicroDelay>
   1530c:	eaffffd9 	b	15278 <HcdChannelSendWaitOne+0x1bc>
   15310:	e5d32000 	ldrb	r2, [r3]
   15314:	e3120010 	tst	r2, #16
   15318:	e59da010 	ldr	sl, [sp, #16]
   1531c:	1afffff2 	bne	152ec <HcdChannelSendWaitOne+0x230>
   15320:	e5d32000 	ldrb	r2, [r3]
   15324:	e1b023a2 	lsrs	r2, r2, #7
   15328:	1afffff5 	bne	15304 <HcdChannelSendWaitOne+0x248>
   1532c:	e5931000 	ldr	r1, [r3]
   15330:	e59d000c 	ldr	r0, [sp, #12]
   15334:	ebffff29 	bl	14fe0 <HcdChannelInterruptToError>
   15338:	e3500000 	cmp	r0, #0
   1533c:	0affffdb 	beq	152b0 <HcdChannelSendWaitOne+0x1f4>
   15340:	eaffffe4 	b	152d8 <HcdChannelSendWaitOne+0x21c>
   15344:	e5d33000 	ldrb	r3, [r3]
   15348:	e0822007 	add	r2, r2, r7
   1534c:	e5921108 	ldr	r1, [r2, #264]	; 0x108
   15350:	e1a023a3 	lsr	r2, r3, #7
   15354:	e59d000c 	ldr	r0, [sp, #12]
   15358:	e2222001 	eor	r2, r2, #1
   1535c:	ebffff1f 	bl	14fe0 <HcdChannelInterruptToError>
   15360:	e3500000 	cmp	r0, #0
   15364:	0affffd1 	beq	152b0 <HcdChannelSendWaitOne+0x1f4>
   15368:	eaffffda 	b	152d8 <HcdChannelSendWaitOne+0x21c>
   1536c:	00015e28 	.word	0x00015e28
   15370:	00001388 	.word	0x00001388
   15374:	000061a8 	.word	0x000061a8

00015378 <HcdChannelSendWait>:
   15378:	e92d4ff0 	push	{r4, r5, r6, r7, r8, r9, sl, fp, lr}
   1537c:	e24dd01c 	sub	sp, sp, #28
   15380:	e59d4040 	ldr	r4, [sp, #64]	; 0x40
   15384:	e58d1014 	str	r1, [sp, #20]
   15388:	e58d1000 	str	r1, [sp]
   1538c:	e1a0a002 	mov	sl, r2
   15390:	e1a01002 	mov	r1, r2
   15394:	e1a0b003 	mov	fp, r3
   15398:	e1a02004 	mov	r2, r4
   1539c:	e5dd3048 	ldrb	r3, [sp, #72]	; 0x48
   153a0:	e1a09000 	mov	r9, r0
   153a4:	ebfffe1c 	bl	14c1c <HcdPrepareChannel>
   153a8:	e2508000 	subs	r8, r0, #0
   153ac:	13a03080 	movne	r3, #128	; 0x80
   153b0:	15893008 	strne	r3, [r9, #8]
   153b4:	1a00002b 	bne	15468 <HcdChannelSendWait+0xf0>
   153b8:	e59f60cc 	ldr	r6, [pc, #204]	; 1548c <HcdChannelSendWait+0x114>
   153bc:	e1a0528a 	lsl	r5, sl, #5
   153c0:	e285ce11 	add	ip, r5, #272	; 0x110
   153c4:	e5962004 	ldr	r2, [r6, #4]
   153c8:	e58dc010 	str	ip, [sp, #16]
   153cc:	e1a00008 	mov	r0, r8
   153d0:	e59dc044 	ldr	ip, [sp, #68]	; 0x44
   153d4:	e0822005 	add	r2, r2, r5
   153d8:	e5927110 	ldr	r7, [r2, #272]	; 0x110
   153dc:	e59d1014 	ldr	r1, [sp, #20]
   153e0:	e58d0004 	str	r0, [sp, #4]
   153e4:	e1a0200a 	mov	r2, sl
   153e8:	e1a0300b 	mov	r3, fp
   153ec:	e58d4000 	str	r4, [sp]
   153f0:	e58dc008 	str	ip, [sp, #8]
   153f4:	e1a00009 	mov	r0, r9
   153f8:	ebffff2f 	bl	150bc <HcdChannelSendWaitOne>
   153fc:	e1a07187 	lsl	r7, r7, #3
   15400:	e2508000 	subs	r8, r0, #0
   15404:	e1a07b27 	lsr	r7, r7, #22
   15408:	1a000016 	bne	15468 <HcdChannelSendWait+0xf0>
   1540c:	e5960004 	ldr	r0, [r6, #4]
   15410:	e59dc010 	ldr	ip, [sp, #16]
   15414:	e080000c 	add	r0, r0, ip
   15418:	ebfffd26 	bl	148b8 <ReadBackReg>
   1541c:	e5962004 	ldr	r2, [r6, #4]
   15420:	e0823005 	add	r3, r2, r5
   15424:	e5930110 	ldr	r0, [r3, #272]	; 0x110
   15428:	e5931110 	ldr	r1, [r3, #272]	; 0x110
   1542c:	e3c004ff 	bic	r0, r0, #-16777216	; 0xff000000
   15430:	e1a01181 	lsl	r1, r1, #3
   15434:	e3c0073e 	bic	r0, r0, #16252928	; 0xf80000
   15438:	e1570b21 	cmp	r7, r1, lsr #22
   1543c:	e0600004 	rsb	r0, r0, r4
   15440:	0a000003 	beq	15454 <HcdChannelSendWait+0xdc>
   15444:	e5933110 	ldr	r3, [r3, #272]	; 0x110
   15448:	e1a03183 	lsl	r3, r3, #3
   1544c:	e1b03b23 	lsrs	r3, r3, #22
   15450:	1affffde 	bne	153d0 <HcdChannelSendWait+0x58>
   15454:	e0825005 	add	r5, r2, r5
   15458:	e5953110 	ldr	r3, [r5, #272]	; 0x110
   1545c:	e1a03183 	lsl	r3, r3, #3
   15460:	e1570b23 	cmp	r7, r3, lsr #22
   15464:	0a000004 	beq	1547c <HcdChannelSendWait+0x104>
   15468:	e1a00c08 	lsl	r0, r8, #24
   1546c:	e1a00c40 	asr	r0, r0, #24
   15470:	e28dd01c 	add	sp, sp, #28
   15474:	e8bd4ff0 	pop	{r4, r5, r6, r7, r8, r9, sl, fp, lr}
   15478:	e12fff1e 	bx	lr
   1547c:	e3a03080 	mov	r3, #128	; 0x80
   15480:	e5893008 	str	r3, [r9, #8]
   15484:	e3a080fc 	mov	r8, #252	; 0xfc
   15488:	eafffff6 	b	15468 <HcdChannelSendWait+0xf0>
   1548c:	00015e28 	.word	0x00015e28

00015490 <HcdSumbitControlMessage>:
   15490:	e92d4ff0 	push	{r4, r5, r6, r7, r8, r9, sl, fp, lr}
   15494:	e59fc234 	ldr	ip, [pc, #564]	; 156d0 <HcdSumbitControlMessage+0x240>
   15498:	e1a0e421 	lsr	lr, r1, #8
   1549c:	e59c4000 	ldr	r4, [ip]
   154a0:	e201c0ff 	and	ip, r1, #255	; 0xff
   154a4:	e20ee0ff 	and	lr, lr, #255	; 0xff
   154a8:	e1a0b22c 	lsr	fp, ip, #4
   154ac:	e24dd02c 	sub	sp, sp, #44	; 0x2c
   154b0:	e1a0712c 	lsr	r7, ip, #2
   154b4:	e15e0004 	cmp	lr, r4
   154b8:	e20c6003 	and	r6, ip, #3
   154bc:	e20bc0ff 	and	ip, fp, #255	; 0xff
   154c0:	e1a04000 	mov	r4, r0
   154c4:	e58d101c 	str	r1, [sp, #28]
   154c8:	e1a0a002 	mov	sl, r2
   154cc:	e1a08003 	mov	r8, r3
   154d0:	e59d5050 	ldr	r5, [sp, #80]	; 0x50
   154d4:	e2077003 	and	r7, r7, #3
   154d8:	e58dc018 	str	ip, [sp, #24]
   154dc:	0a000070 	beq	156a4 <HcdSumbitControlMessage+0x214>
   154e0:	e5dd3026 	ldrb	r3, [sp, #38]	; 0x26
   154e4:	e1862107 	orr	r2, r6, r7, lsl #2
   154e8:	e20330f8 	and	r3, r3, #248	; 0xf8
   154ec:	e5cd3026 	strb	r3, [sp, #38]	; 0x26
   154f0:	e182220b 	orr	r2, r2, fp, lsl #4
   154f4:	e3a03102 	mov	r3, #-2147483648	; 0x80000000
   154f8:	e20eb0ff 	and	fp, lr, #255	; 0xff
   154fc:	e5cd2024 	strb	r2, [sp, #36]	; 0x24
   15500:	e5cdb025 	strb	fp, [sp, #37]	; 0x25
   15504:	e5803008 	str	r3, [r0, #8]
   15508:	e3a03008 	mov	r3, #8
   1550c:	e3a09000 	mov	r9, #0
   15510:	e58d3000 	str	r3, [sp]
   15514:	e3a03003 	mov	r3, #3
   15518:	e5809408 	str	r9, [r0, #1032]	; 0x408
   1551c:	e59d1024 	ldr	r1, [sp, #36]	; 0x24
   15520:	e58d3008 	str	r3, [sp, #8]
   15524:	e58d5004 	str	r5, [sp, #4]
   15528:	e1a02009 	mov	r2, r9
   1552c:	e1a03005 	mov	r3, r5
   15530:	ebffff90 	bl	15378 <HcdChannelSendWait>
   15534:	e1500009 	cmp	r0, r9
   15538:	11a00009 	movne	r0, r9
   1553c:	1a000017 	bne	155a0 <HcdSumbitControlMessage+0x110>
   15540:	e15a0009 	cmp	sl, r9
   15544:	e5dd3026 	ldrb	r3, [sp, #38]	; 0x26
   15548:	e59f9184 	ldr	r9, [pc, #388]	; 156d4 <HcdSumbitControlMessage+0x244>
   1554c:	0a000030 	beq	15614 <HcdSumbitControlMessage+0x184>
   15550:	e3130004 	tst	r3, #4
   15554:	0a000055 	beq	156b0 <HcdSumbitControlMessage+0x220>
   15558:	e5dd201e 	ldrb	r2, [sp, #30]
   1555c:	e3c31004 	bic	r1, r3, #4
   15560:	e2022004 	and	r2, r2, #4
   15564:	e1822001 	orr	r2, r2, r1
   15568:	e599300c 	ldr	r3, [r9, #12]
   1556c:	e5cd2026 	strb	r2, [sp, #38]	; 0x26
   15570:	e3a02002 	mov	r2, #2
   15574:	e58d2008 	str	r2, [sp, #8]
   15578:	e58d8000 	str	r8, [sp]
   1557c:	e3a02000 	mov	r2, #0
   15580:	e58d5004 	str	r5, [sp, #4]
   15584:	e1a00004 	mov	r0, r4
   15588:	e59d1024 	ldr	r1, [sp, #36]	; 0x24
   1558c:	ebffff79 	bl	15378 <HcdChannelSendWait>
   15590:	e3500000 	cmp	r0, #0
   15594:	e59f2138 	ldr	r2, [pc, #312]	; 156d4 <HcdSumbitControlMessage+0x244>
   15598:	13a00000 	movne	r0, #0
   1559c:	0a000004 	beq	155b4 <HcdSumbitControlMessage+0x124>
   155a0:	e1a00c00 	lsl	r0, r0, #24
   155a4:	e1a00c40 	asr	r0, r0, #24
   155a8:	e28dd02c 	add	sp, sp, #44	; 0x2c
   155ac:	e8bd4ff0 	pop	{r4, r5, r6, r7, r8, r9, sl, fp, lr}
   155b0:	e12fff1e 	bx	lr
   155b4:	e5920004 	ldr	r0, [r2, #4]
   155b8:	e2800e11 	add	r0, r0, #272	; 0x110
   155bc:	e58d2014 	str	r2, [sp, #20]
   155c0:	ebfffcbc 	bl	148b8 <ReadBackReg>
   155c4:	e5dd3026 	ldrb	r3, [sp, #38]	; 0x26
   155c8:	e3130004 	tst	r3, #4
   155cc:	e59d2014 	ldr	r2, [sp, #20]
   155d0:	0a00003c 	beq	156c8 <HcdSumbitControlMessage+0x238>
   155d4:	e5922004 	ldr	r2, [r2, #4]
   155d8:	e5923110 	ldr	r3, [r2, #272]	; 0x110
   155dc:	e3c334ff 	bic	r3, r3, #-16777216	; 0xff000000
   155e0:	e3c3373e 	bic	r3, r3, #16252928	; 0xf80000
   155e4:	e1530008 	cmp	r3, r8
   155e8:	95923110 	ldrls	r3, [r2, #272]	; 0x110
   155ec:	93c334ff 	bicls	r3, r3, #-16777216	; 0xff000000
   155f0:	93c3373e 	bicls	r3, r3, #16252928	; 0xf80000
   155f4:	90633008 	rsbls	r3, r3, r8
   155f8:	95843408 	strls	r3, [r4, #1032]	; 0x408
   155fc:	85848408 	strhi	r8, [r4, #1032]	; 0x408
   15600:	e1a0000a 	mov	r0, sl
   15604:	e5942408 	ldr	r2, [r4, #1032]	; 0x408
   15608:	e599100c 	ldr	r1, [r9, #12]
   1560c:	ebffda50 	bl	bf54 <MemoryCopy>
   15610:	e5dd3026 	ldrb	r3, [sp, #38]	; 0x26
   15614:	e3580000 	cmp	r8, #0
   15618:	15dd201e 	ldrbne	r2, [sp, #30]
   1561c:	11a02122 	lsrne	r2, r2, #2
   15620:	12222001 	eorne	r2, r2, #1
   15624:	e59dc018 	ldr	ip, [sp, #24]
   15628:	12022001 	andne	r2, r2, #1
   1562c:	03a02001 	moveq	r2, #1
   15630:	e20310f8 	and	r1, r3, #248	; 0xf8
   15634:	e1866107 	orr	r6, r6, r7, lsl #2
   15638:	e599300c 	ldr	r3, [r9, #12]
   1563c:	e1812102 	orr	r2, r1, r2, lsl #2
   15640:	e186920c 	orr	r9, r6, ip, lsl #4
   15644:	e5cd2026 	strb	r2, [sp, #38]	; 0x26
   15648:	e3a06000 	mov	r6, #0
   1564c:	e5cd9024 	strb	r9, [sp, #36]	; 0x24
   15650:	e5cdb025 	strb	fp, [sp, #37]	; 0x25
   15654:	e3a02002 	mov	r2, #2
   15658:	e58d5004 	str	r5, [sp, #4]
   1565c:	e58d2008 	str	r2, [sp, #8]
   15660:	e58d6000 	str	r6, [sp]
   15664:	e1a00004 	mov	r0, r4
   15668:	e59d1024 	ldr	r1, [sp, #36]	; 0x24
   1566c:	e1a02006 	mov	r2, r6
   15670:	ebffff40 	bl	15378 <HcdChannelSendWait>
   15674:	e2505000 	subs	r5, r0, #0
   15678:	e59f7054 	ldr	r7, [pc, #84]	; 156d4 <HcdSumbitControlMessage+0x244>
   1567c:	11a00006 	movne	r0, r6
   15680:	1affffc6 	bne	155a0 <HcdSumbitControlMessage+0x110>
   15684:	e5970004 	ldr	r0, [r7, #4]
   15688:	e2800e11 	add	r0, r0, #272	; 0x110
   1568c:	ebfffc89 	bl	148b8 <ReadBackReg>
   15690:	e5973004 	ldr	r3, [r7, #4]
   15694:	e1a00005 	mov	r0, r5
   15698:	e5933110 	ldr	r3, [r3, #272]	; 0x110
   1569c:	e5845008 	str	r5, [r4, #8]
   156a0:	eaffffbe 	b	155a0 <HcdSumbitControlMessage+0x110>
   156a4:	e58d5000 	str	r5, [sp]
   156a8:	eb0001f3 	bl	15e7c <HcdProcessRootHubMessage>
   156ac:	eaffffbb 	b	155a0 <HcdSumbitControlMessage+0x110>
   156b0:	e1a0100a 	mov	r1, sl
   156b4:	e599000c 	ldr	r0, [r9, #12]
   156b8:	e1a02008 	mov	r2, r8
   156bc:	ebffda24 	bl	bf54 <MemoryCopy>
   156c0:	e5dd3026 	ldrb	r3, [sp, #38]	; 0x26
   156c4:	eaffffa3 	b	15558 <HcdSumbitControlMessage+0xc8>
   156c8:	e5848408 	str	r8, [r4, #1032]	; 0x408
   156cc:	eaffffd0 	b	15614 <HcdSumbitControlMessage+0x184>
   156d0:	0001656c 	.word	0x0001656c
   156d4:	00015e28 	.word	0x00015e28

000156d8 <HcdInitialise>:
   156d8:	e92d4010 	push	{r4, lr}
   156dc:	e59f1168 	ldr	r1, [pc, #360]	; 1584c <HcdInitialise+0x174>
   156e0:	e24dd008 	sub	sp, sp, #8
   156e4:	e3a00b01 	mov	r0, #1024	; 0x400
   156e8:	ebffd8bd 	bl	b9e4 <MemoryReserve>
   156ec:	e59f315c 	ldr	r3, [pc, #348]	; 15850 <HcdInitialise+0x178>
   156f0:	e5830000 	str	r0, [r3]
   156f4:	e3a00b01 	mov	r0, #1024	; 0x400
   156f8:	ebffd8bb 	bl	b9ec <MemoryAllocate>
   156fc:	e59f4150 	ldr	r4, [pc, #336]	; 15854 <HcdInitialise+0x17c>
   15700:	e59f1150 	ldr	r1, [pc, #336]	; 15858 <HcdInitialise+0x180>
   15704:	e5840000 	str	r0, [r4]
   15708:	e3a00b01 	mov	r0, #1024	; 0x400
   1570c:	ebffd8b4 	bl	b9e4 <MemoryReserve>
   15710:	e59f3144 	ldr	r3, [pc, #324]	; 1585c <HcdInitialise+0x184>
   15714:	e5830000 	str	r0, [r3]
   15718:	e3a00b01 	mov	r0, #1024	; 0x400
   1571c:	ebffd8b2 	bl	b9ec <MemoryAllocate>
   15720:	e59f1138 	ldr	r1, [pc, #312]	; 15860 <HcdInitialise+0x188>
   15724:	e5840004 	str	r0, [r4, #4]
   15728:	e3a00004 	mov	r0, #4
   1572c:	ebffd8ac 	bl	b9e4 <MemoryReserve>
   15730:	e59f312c 	ldr	r3, [pc, #300]	; 15864 <HcdInitialise+0x18c>
   15734:	e5830000 	str	r0, [r3]
   15738:	e3a00004 	mov	r0, #4
   1573c:	ebffd8aa 	bl	b9ec <MemoryAllocate>
   15740:	e5943000 	ldr	r3, [r4]
   15744:	e5840008 	str	r0, [r4, #8]
   15748:	e2830040 	add	r0, r3, #64	; 0x40
   1574c:	ebfffc59 	bl	148b8 <ReadBackReg>
   15750:	e5940000 	ldr	r0, [r4]
   15754:	e280003c 	add	r0, r0, #60	; 0x3c
   15758:	ebfffc56 	bl	148b8 <ReadBackReg>
   1575c:	e5940000 	ldr	r0, [r4]
   15760:	e5902040 	ldr	r2, [r0, #64]	; 0x40
   15764:	e59f30fc 	ldr	r3, [pc, #252]	; 15868 <HcdInitialise+0x190>
   15768:	e3c22eff 	bic	r2, r2, #4080	; 0xff0
   1576c:	e3c2200f 	bic	r2, r2, #15
   15770:	e1520003 	cmp	r2, r3
   15774:	0a00000f 	beq	157b8 <HcdInitialise+0xe0>
   15778:	e3e03004 	mvn	r3, #4
   1577c:	e5cd3007 	strb	r3, [sp, #7]
   15780:	ebffd9ad 	bl	be3c <MemoryDeallocate>
   15784:	e5940004 	ldr	r0, [r4, #4]
   15788:	e3500000 	cmp	r0, #0
   1578c:	1bffd9aa 	blne	be3c <MemoryDeallocate>
   15790:	e5940008 	ldr	r0, [r4, #8]
   15794:	e3500000 	cmp	r0, #0
   15798:	1bffd9a7 	blne	be3c <MemoryDeallocate>
   1579c:	e5dd0007 	ldrb	r0, [sp, #7]
   157a0:	e20000ff 	and	r0, r0, #255	; 0xff
   157a4:	e1a00c00 	lsl	r0, r0, #24
   157a8:	e1a00c40 	asr	r0, r0, #24
   157ac:	e28dd008 	add	sp, sp, #8
   157b0:	e8bd4010 	pop	{r4, lr}
   157b4:	e12fff1e 	bx	lr
   157b8:	e2800044 	add	r0, r0, #68	; 0x44
   157bc:	ebfffc3d 	bl	148b8 <ReadBackReg>
   157c0:	e5940000 	ldr	r0, [r4]
   157c4:	e5d03048 	ldrb	r3, [r0, #72]	; 0x48
   157c8:	e2033018 	and	r3, r3, #24
   157cc:	e3530010 	cmp	r3, #16
   157d0:	1affffe8 	bne	15778 <HcdInitialise+0xa0>
   157d4:	e5d03048 	ldrb	r3, [r0, #72]	; 0x48
   157d8:	e31300c0 	tst	r3, #192	; 0xc0
   157dc:	0affffe5 	beq	15778 <HcdInitialise+0xa0>
   157e0:	e5940004 	ldr	r0, [r4, #4]
   157e4:	ebfffc33 	bl	148b8 <ReadBackReg>
   157e8:	e5940000 	ldr	r0, [r4]
   157ec:	e2800008 	add	r0, r0, #8
   157f0:	ebfffc30 	bl	148b8 <ReadBackReg>
   157f4:	e5943000 	ldr	r3, [r4]
   157f8:	e5d32008 	ldrb	r2, [r3, #8]
   157fc:	e3c22001 	bic	r2, r2, #1
   15800:	e2830018 	add	r0, r3, #24
   15804:	e5c32008 	strb	r2, [r3, #8]
   15808:	ebfffc53 	bl	1495c <ClearReg>
   1580c:	e5940000 	ldr	r0, [r4]
   15810:	e2800018 	add	r0, r0, #24
   15814:	ebfffc25 	bl	148b0 <WriteThroughReg>
   15818:	e5940000 	ldr	r0, [r4]
   1581c:	e2800008 	add	r0, r0, #8
   15820:	ebfffc22 	bl	148b0 <WriteThroughReg>
   15824:	eb0003e2 	bl	167b4 <PowerOnUsb>
   15828:	e3500000 	cmp	r0, #0
   1582c:	e5cd0007 	strb	r0, [sp, #7]
   15830:	0affffdb 	beq	157a4 <HcdInitialise+0xcc>
   15834:	e5940000 	ldr	r0, [r4]
   15838:	e3e03004 	mvn	r3, #4
   1583c:	e3500000 	cmp	r0, #0
   15840:	e5cd3007 	strb	r3, [sp, #7]
   15844:	0affffce 	beq	15784 <HcdInitialise+0xac>
   15848:	eaffffcc 	b	15780 <HcdInitialise+0xa8>
   1584c:	20980000 	.word	0x20980000
   15850:	00015e70 	.word	0x00015e70
   15854:	00015e28 	.word	0x00015e28
   15858:	20980400 	.word	0x20980400
   1585c:	00015e74 	.word	0x00015e74
   15860:	20980e00 	.word	0x20980e00
   15864:	00015e78 	.word	0x00015e78
   15868:	4f542000 	.word	0x4f542000

0001586c <HcdStart>:
   1586c:	e92d41f0 	push	{r4, r5, r6, r7, r8, lr}
   15870:	e59f4548 	ldr	r4, [pc, #1352]	; 15dc0 <HcdStart+0x554>
   15874:	e5943000 	ldr	r3, [r4]
   15878:	e3530000 	cmp	r3, #0
   1587c:	0a00014b 	beq	15db0 <HcdStart+0x544>
   15880:	e3a00b01 	mov	r0, #1024	; 0x400
   15884:	ebffd858 	bl	b9ec <MemoryAllocate>
   15888:	e3500000 	cmp	r0, #0
   1588c:	e584000c 	str	r0, [r4, #12]
   15890:	0a000148 	beq	15db8 <HcdStart+0x54c>
   15894:	e5940000 	ldr	r0, [r4]
   15898:	e280000c 	add	r0, r0, #12
   1589c:	ebfffc05 	bl	148b8 <ReadBackReg>
   158a0:	e5943000 	ldr	r3, [r4]
   158a4:	e5d3200e 	ldrb	r2, [r3, #14]
   158a8:	e3c22010 	bic	r2, r2, #16
   158ac:	e5c3200e 	strb	r2, [r3, #14]
   158b0:	e5d3200e 	ldrb	r2, [r3, #14]
   158b4:	e3c22040 	bic	r2, r2, #64	; 0x40
   158b8:	e283000c 	add	r0, r3, #12
   158bc:	e5c3200e 	strb	r2, [r3, #14]
   158c0:	ebfffbfa 	bl	148b0 <WriteThroughReg>
   158c4:	ebfffc65 	bl	14a60 <HcdReset>
   158c8:	e2506000 	subs	r6, r0, #0
   158cc:	1a000080 	bne	15ad4 <HcdStart+0x268>
   158d0:	e5d43010 	ldrb	r3, [r4, #16]
   158d4:	e3530000 	cmp	r3, #0
   158d8:	0a000092 	beq	15b28 <HcdStart+0x2bc>
   158dc:	e5940000 	ldr	r0, [r4]
   158e0:	e280000c 	add	r0, r0, #12
   158e4:	ebfffbf3 	bl	148b8 <ReadBackReg>
   158e8:	e5940000 	ldr	r0, [r4]
   158ec:	e5d03048 	ldrb	r3, [r0, #72]	; 0x48
   158f0:	e20330c0 	and	r3, r3, #192	; 0xc0
   158f4:	e3530080 	cmp	r3, #128	; 0x80
   158f8:	0a000105 	beq	15d14 <HcdStart+0x4a8>
   158fc:	e5d0300e 	ldrb	r3, [r0, #14]
   15900:	e3c33002 	bic	r3, r3, #2
   15904:	e5c0300e 	strb	r3, [r0, #14]
   15908:	e5d0300e 	ldrb	r3, [r0, #14]
   1590c:	e3c33008 	bic	r3, r3, #8
   15910:	e5c0300e 	strb	r3, [r0, #14]
   15914:	e280000c 	add	r0, r0, #12
   15918:	ebfffbe4 	bl	148b0 <WriteThroughReg>
   1591c:	e5940000 	ldr	r0, [r4]
   15920:	e2800008 	add	r0, r0, #8
   15924:	ebfffbe3 	bl	148b8 <ReadBackReg>
   15928:	e5943000 	ldr	r3, [r4]
   1592c:	e5d32008 	ldrb	r2, [r3, #8]
   15930:	e3822020 	orr	r2, r2, #32
   15934:	e5c32008 	strb	r2, [r3, #8]
   15938:	e5d3200a 	ldrb	r2, [r3, #10]
   1593c:	e3c22080 	bic	r2, r2, #128	; 0x80
   15940:	e2830008 	add	r0, r3, #8
   15944:	e5c3200a 	strb	r2, [r3, #10]
   15948:	ebfffbd8 	bl	148b0 <WriteThroughReg>
   1594c:	e5940000 	ldr	r0, [r4]
   15950:	e280000c 	add	r0, r0, #12
   15954:	ebfffbd7 	bl	148b8 <ReadBackReg>
   15958:	e5940000 	ldr	r0, [r4]
   1595c:	e5d03048 	ldrb	r3, [r0, #72]	; 0x48
   15960:	e2033007 	and	r3, r3, #7
   15964:	e3530006 	cmp	r3, #6
   15968:	9a00005f 	bls	15aec <HcdStart+0x280>
   1596c:	e280000c 	add	r0, r0, #12
   15970:	ebfffbce 	bl	148b0 <WriteThroughReg>
   15974:	e5940008 	ldr	r0, [r4, #8]
   15978:	ebfffbf7 	bl	1495c <ClearReg>
   1597c:	e5940008 	ldr	r0, [r4, #8]
   15980:	ebfffbca 	bl	148b0 <WriteThroughReg>
   15984:	e5940004 	ldr	r0, [r4, #4]
   15988:	ebfffbca 	bl	148b8 <ReadBackReg>
   1598c:	e5943000 	ldr	r3, [r4]
   15990:	e5d32048 	ldrb	r2, [r3, #72]	; 0x48
   15994:	e20220c0 	and	r2, r2, #192	; 0xc0
   15998:	e3520080 	cmp	r2, #128	; 0x80
   1599c:	0a0000e7 	beq	15d40 <HcdStart+0x4d4>
   159a0:	e5943004 	ldr	r3, [r4, #4]
   159a4:	e5d32000 	ldrb	r2, [r3]
   159a8:	e3c22003 	bic	r2, r2, #3
   159ac:	e5c32000 	strb	r2, [r3]
   159b0:	e5940004 	ldr	r0, [r4, #4]
   159b4:	ebfffbbd 	bl	148b0 <WriteThroughReg>
   159b8:	e5940004 	ldr	r0, [r4, #4]
   159bc:	ebfffbbd 	bl	148b8 <ReadBackReg>
   159c0:	e5943004 	ldr	r3, [r4, #4]
   159c4:	e5d32000 	ldrb	r2, [r3]
   159c8:	e3822004 	orr	r2, r2, #4
   159cc:	e1a00003 	mov	r0, r3
   159d0:	e5c32000 	strb	r2, [r3]
   159d4:	ebfffbb5 	bl	148b0 <WriteThroughReg>
   159d8:	e5940004 	ldr	r0, [r4, #4]
   159dc:	ebfffbb5 	bl	148b8 <ReadBackReg>
   159e0:	e5943000 	ldr	r3, [r4]
   159e4:	e5940004 	ldr	r0, [r4, #4]
   159e8:	e5d01002 	ldrb	r1, [r0, #2]
   159ec:	e5d32053 	ldrb	r2, [r3, #83]	; 0x53
   159f0:	e1a02322 	lsr	r2, r2, #6
   159f4:	e2022001 	and	r2, r2, #1
   159f8:	e15203a1 	cmp	r2, r1, lsr #7
   159fc:	05933040 	ldreq	r3, [r3, #64]	; 0x40
   15a00:	ebfffbaa 	bl	148b0 <WriteThroughReg>
   15a04:	e5940000 	ldr	r0, [r4]
   15a08:	e2800024 	add	r0, r0, #36	; 0x24
   15a0c:	ebfffba9 	bl	148b8 <ReadBackReg>
   15a10:	e5943000 	ldr	r3, [r4]
   15a14:	e1a00003 	mov	r0, r3
   15a18:	e5933024 	ldr	r3, [r3, #36]	; 0x24
   15a1c:	e3a03a05 	mov	r3, #20480	; 0x5000
   15a20:	e5a03024 	str	r3, [r0, #36]!	; 0x24
   15a24:	ebfffba1 	bl	148b0 <WriteThroughReg>
   15a28:	e5940000 	ldr	r0, [r4]
   15a2c:	e2800028 	add	r0, r0, #40	; 0x28
   15a30:	ebfffba0 	bl	148b8 <ReadBackReg>
   15a34:	e5940000 	ldr	r0, [r4]
   15a38:	e5903028 	ldr	r3, [r0, #40]	; 0x28
   15a3c:	e1a03803 	lsl	r3, r3, #16
   15a40:	e1a03823 	lsr	r3, r3, #16
   15a44:	e3833205 	orr	r3, r3, #1342177280	; 0x50000000
   15a48:	e5803028 	str	r3, [r0, #40]	; 0x28
   15a4c:	e5903028 	ldr	r3, [r0, #40]	; 0x28
   15a50:	e1a03823 	lsr	r3, r3, #16
   15a54:	e1a03803 	lsl	r3, r3, #16
   15a58:	e3833a05 	orr	r3, r3, #20480	; 0x5000
   15a5c:	e5a03028 	str	r3, [r0, #40]!	; 0x28
   15a60:	ebfffb92 	bl	148b0 <WriteThroughReg>
   15a64:	e5940000 	ldr	r0, [r4]
   15a68:	e2800c01 	add	r0, r0, #256	; 0x100
   15a6c:	ebfffb91 	bl	148b8 <ReadBackReg>
   15a70:	e5940000 	ldr	r0, [r4]
   15a74:	e5903100 	ldr	r3, [r0, #256]	; 0x100
   15a78:	e1a03803 	lsl	r3, r3, #16
   15a7c:	e1a03823 	lsr	r3, r3, #16
   15a80:	e3833205 	orr	r3, r3, #1342177280	; 0x50000000
   15a84:	e5803100 	str	r3, [r0, #256]	; 0x100
   15a88:	e5903100 	ldr	r3, [r0, #256]	; 0x100
   15a8c:	e1a03823 	lsr	r3, r3, #16
   15a90:	e1a03803 	lsl	r3, r3, #16
   15a94:	e3833a0a 	orr	r3, r3, #40960	; 0xa000
   15a98:	e5a03100 	str	r3, [r0, #256]!	; 0x100
   15a9c:	ebfffb83 	bl	148b0 <WriteThroughReg>
   15aa0:	e5940000 	ldr	r0, [r4]
   15aa4:	ebfffb83 	bl	148b8 <ReadBackReg>
   15aa8:	e5943000 	ldr	r3, [r4]
   15aac:	e5d32001 	ldrb	r2, [r3, #1]
   15ab0:	e3822004 	orr	r2, r2, #4
   15ab4:	e1a00003 	mov	r0, r3
   15ab8:	e5c32001 	strb	r2, [r3, #1]
   15abc:	ebfffb7b 	bl	148b0 <WriteThroughReg>
   15ac0:	e3a00010 	mov	r0, #16
   15ac4:	ebfffc11 	bl	14b10 <HcdTransmitFifoFlush>
   15ac8:	e2506000 	subs	r6, r0, #0
   15acc:	e59f82ec 	ldr	r8, [pc, #748]	; 15dc0 <HcdStart+0x554>
   15ad0:	0a000020 	beq	15b58 <HcdStart+0x2ec>
   15ad4:	e594000c 	ldr	r0, [r4, #12]
   15ad8:	ebffd8d7 	bl	be3c <MemoryDeallocate>
   15adc:	e1a00c06 	lsl	r0, r6, #24
   15ae0:	e1a00c40 	asr	r0, r0, #24
   15ae4:	e8bd41f0 	pop	{r4, r5, r6, r7, r8, lr}
   15ae8:	e12fff1e 	bx	lr
   15aec:	e3a02001 	mov	r2, #1
   15af0:	e1a03312 	lsl	r3, r2, r3
   15af4:	e3130054 	tst	r3, #84	; 0x54
   15af8:	1a00009e 	bne	15d78 <HcdStart+0x50c>
   15afc:	e313002a 	tst	r3, #42	; 0x2a
   15b00:	1a0000a3 	bne	15d94 <HcdStart+0x528>
   15b04:	e3130001 	tst	r3, #1
   15b08:	0affff97 	beq	1596c <HcdStart+0x100>
   15b0c:	e5d0300d 	ldrb	r3, [r0, #13]
   15b10:	e3833002 	orr	r3, r3, #2
   15b14:	e5c0300d 	strb	r3, [r0, #13]
   15b18:	e5d0300d 	ldrb	r3, [r0, #13]
   15b1c:	e1833002 	orr	r3, r3, r2
   15b20:	e5c0300d 	strb	r3, [r0, #13]
   15b24:	eaffff90 	b	1596c <HcdStart+0x100>
   15b28:	e3a03001 	mov	r3, #1
   15b2c:	e5940000 	ldr	r0, [r4]
   15b30:	e5c43010 	strb	r3, [r4, #16]
   15b34:	e5d0300c 	ldrb	r3, [r0, #12]
   15b38:	e3833010 	orr	r3, r3, #16
   15b3c:	e5c0300c 	strb	r3, [r0, #12]
   15b40:	e5d0300c 	ldrb	r3, [r0, #12]
   15b44:	e3c33008 	bic	r3, r3, #8
   15b48:	e5e0300c 	strb	r3, [r0, #12]!
   15b4c:	ebfffb57 	bl	148b0 <WriteThroughReg>
   15b50:	ebfffbc2 	bl	14a60 <HcdReset>
   15b54:	eaffff60 	b	158dc <HcdStart+0x70>
   15b58:	ebfffc11 	bl	14ba4 <HcdReceiveFifoFlush>
   15b5c:	e2506000 	subs	r6, r0, #0
   15b60:	1affffdb 	bne	15ad4 <HcdStart+0x268>
   15b64:	e5980004 	ldr	r0, [r8, #4]
   15b68:	e5d03002 	ldrb	r3, [r0, #2]
   15b6c:	e3130080 	tst	r3, #128	; 0x80
   15b70:	1a000043 	bne	15c84 <HcdStart+0x418>
   15b74:	e5983000 	ldr	r3, [r8]
   15b78:	e5932048 	ldr	r2, [r3, #72]	; 0x48
   15b7c:	e312090f 	tst	r2, #245760	; 0x3c000
   15b80:	0a00001b 	beq	15bf4 <HcdStart+0x388>
   15b84:	e1a05006 	mov	r5, r6
   15b88:	ea000000 	b	15b90 <HcdStart+0x324>
   15b8c:	e5980004 	ldr	r0, [r8, #4]
   15b90:	e2857008 	add	r7, r5, #8
   15b94:	e1a07287 	lsl	r7, r7, #5
   15b98:	e0800007 	add	r0, r0, r7
   15b9c:	ebfffb45 	bl	148b8 <ReadBackReg>
   15ba0:	e5940004 	ldr	r0, [r4, #4]
   15ba4:	e0800007 	add	r0, r0, r7
   15ba8:	e5d03003 	ldrb	r3, [r0, #3]
   15bac:	e3c33080 	bic	r3, r3, #128	; 0x80
   15bb0:	e5c03003 	strb	r3, [r0, #3]
   15bb4:	e5d03003 	ldrb	r3, [r0, #3]
   15bb8:	e3833040 	orr	r3, r3, #64	; 0x40
   15bbc:	e5c03003 	strb	r3, [r0, #3]
   15bc0:	e5d03001 	ldrb	r3, [r0, #1]
   15bc4:	e3833080 	orr	r3, r3, #128	; 0x80
   15bc8:	e5c03001 	strb	r3, [r0, #1]
   15bcc:	ebfffb37 	bl	148b0 <WriteThroughReg>
   15bd0:	e5943000 	ldr	r3, [r4]
   15bd4:	e5932048 	ldr	r2, [r3, #72]	; 0x48
   15bd8:	e1a02722 	lsr	r2, r2, #14
   15bdc:	e2855001 	add	r5, r5, #1
   15be0:	e202200f 	and	r2, r2, #15
   15be4:	e1520005 	cmp	r2, r5
   15be8:	8affffe7 	bhi	15b8c <HcdStart+0x320>
   15bec:	e59f21cc 	ldr	r2, [pc, #460]	; 15dc0 <HcdStart+0x554>
   15bf0:	e5920004 	ldr	r0, [r2, #4]
   15bf4:	e5933048 	ldr	r3, [r3, #72]	; 0x48
   15bf8:	e313090f 	tst	r3, #245760	; 0x3c000
   15bfc:	0a000020 	beq	15c84 <HcdStart+0x418>
   15c00:	e3a07000 	mov	r7, #0
   15c04:	e2875008 	add	r5, r7, #8
   15c08:	e1a05285 	lsl	r5, r5, #5
   15c0c:	e0800005 	add	r0, r0, r5
   15c10:	ebfffb28 	bl	148b8 <ReadBackReg>
   15c14:	e5940004 	ldr	r0, [r4, #4]
   15c18:	e0800005 	add	r0, r0, r5
   15c1c:	e5d03003 	ldrb	r3, [r0, #3]
   15c20:	e3833080 	orr	r3, r3, #128	; 0x80
   15c24:	e5c03003 	strb	r3, [r0, #3]
   15c28:	e5d03003 	ldrb	r3, [r0, #3]
   15c2c:	e3833040 	orr	r3, r3, #64	; 0x40
   15c30:	e5c03003 	strb	r3, [r0, #3]
   15c34:	e5d03001 	ldrb	r3, [r0, #1]
   15c38:	e3833080 	orr	r3, r3, #128	; 0x80
   15c3c:	e5c03001 	strb	r3, [r0, #1]
   15c40:	ebfffb1a 	bl	148b0 <WriteThroughReg>
   15c44:	e5940004 	ldr	r0, [r4, #4]
   15c48:	e0800005 	add	r0, r0, r5
   15c4c:	ebfffb19 	bl	148b8 <ReadBackReg>
   15c50:	e5940004 	ldr	r0, [r4, #4]
   15c54:	e0803005 	add	r3, r0, r5
   15c58:	e5d33003 	ldrb	r3, [r3, #3]
   15c5c:	e1b033a3 	lsrs	r3, r3, #7
   15c60:	1afffff8 	bne	15c48 <HcdStart+0x3dc>
   15c64:	e59f3154 	ldr	r3, [pc, #340]	; 15dc0 <HcdStart+0x554>
   15c68:	e5933000 	ldr	r3, [r3]
   15c6c:	e5933048 	ldr	r3, [r3, #72]	; 0x48
   15c70:	e1a03723 	lsr	r3, r3, #14
   15c74:	e2877001 	add	r7, r7, #1
   15c78:	e203300f 	and	r3, r3, #15
   15c7c:	e1530007 	cmp	r3, r7
   15c80:	8affffdf 	bhi	15c04 <HcdStart+0x398>
   15c84:	e2800040 	add	r0, r0, #64	; 0x40
   15c88:	ebfffb0a 	bl	148b8 <ReadBackReg>
   15c8c:	e5940004 	ldr	r0, [r4, #4]
   15c90:	e5d03041 	ldrb	r3, [r0, #65]	; 0x41
   15c94:	e3130010 	tst	r3, #16
   15c98:	1a000007 	bne	15cbc <HcdStart+0x450>
   15c9c:	e5d03041 	ldrb	r3, [r0, #65]	; 0x41
   15ca0:	e3833010 	orr	r3, r3, #16
   15ca4:	e5c03041 	strb	r3, [r0, #65]	; 0x41
   15ca8:	e3a01a01 	mov	r1, #4096	; 0x1000
   15cac:	e2800040 	add	r0, r0, #64	; 0x40
   15cb0:	ebfffad9 	bl	1481c <WriteThroughRegMask>
   15cb4:	e59f3104 	ldr	r3, [pc, #260]	; 15dc0 <HcdStart+0x554>
   15cb8:	e5930004 	ldr	r0, [r3, #4]
   15cbc:	e2800040 	add	r0, r0, #64	; 0x40
   15cc0:	ebfffafc 	bl	148b8 <ReadBackReg>
   15cc4:	e5943004 	ldr	r3, [r4, #4]
   15cc8:	e5d32041 	ldrb	r2, [r3, #65]	; 0x41
   15ccc:	e3822001 	orr	r2, r2, #1
   15cd0:	e2830040 	add	r0, r3, #64	; 0x40
   15cd4:	e5c32041 	strb	r2, [r3, #65]	; 0x41
   15cd8:	e3a01c01 	mov	r1, #256	; 0x100
   15cdc:	ebffface 	bl	1481c <WriteThroughRegMask>
   15ce0:	e59f00dc 	ldr	r0, [pc, #220]	; 15dc4 <HcdStart+0x558>
   15ce4:	eb000296 	bl	16744 <MicroDelay>
   15ce8:	e5943004 	ldr	r3, [r4, #4]
   15cec:	e5d32041 	ldrb	r2, [r3, #65]	; 0x41
   15cf0:	e3c22001 	bic	r2, r2, #1
   15cf4:	e2830040 	add	r0, r3, #64	; 0x40
   15cf8:	e5c32041 	strb	r2, [r3, #65]	; 0x41
   15cfc:	e3a01c01 	mov	r1, #256	; 0x100
   15d00:	ebfffac5 	bl	1481c <WriteThroughRegMask>
   15d04:	e5940004 	ldr	r0, [r4, #4]
   15d08:	e2800040 	add	r0, r0, #64	; 0x40
   15d0c:	ebfffae9 	bl	148b8 <ReadBackReg>
   15d10:	eaffff71 	b	15adc <HcdStart+0x270>
   15d14:	e5d03049 	ldrb	r3, [r0, #73]	; 0x49
   15d18:	e2033003 	and	r3, r3, #3
   15d1c:	e3530001 	cmp	r3, #1
   15d20:	1afffef5 	bne	158fc <HcdStart+0x90>
   15d24:	e5d0300e 	ldrb	r3, [r0, #14]
   15d28:	e3833002 	orr	r3, r3, #2
   15d2c:	e5c0300e 	strb	r3, [r0, #14]
   15d30:	e5d0300e 	ldrb	r3, [r0, #14]
   15d34:	e3833008 	orr	r3, r3, #8
   15d38:	e5c0300e 	strb	r3, [r0, #14]
   15d3c:	eafffef4 	b	15914 <HcdStart+0xa8>
   15d40:	e5d32049 	ldrb	r2, [r3, #73]	; 0x49
   15d44:	e2022003 	and	r2, r2, #3
   15d48:	e3520001 	cmp	r2, #1
   15d4c:	1affff13 	bne	159a0 <HcdStart+0x134>
   15d50:	e5d3300e 	ldrb	r3, [r3, #14]
   15d54:	e3130002 	tst	r3, #2
   15d58:	0affff10 	beq	159a0 <HcdStart+0x134>
   15d5c:	e59f305c 	ldr	r3, [pc, #92]	; 15dc0 <HcdStart+0x554>
   15d60:	e5933004 	ldr	r3, [r3, #4]
   15d64:	e5d32000 	ldrb	r2, [r3]
   15d68:	e3c22002 	bic	r2, r2, #2
   15d6c:	e3822001 	orr	r2, r2, #1
   15d70:	e5c32000 	strb	r2, [r3]
   15d74:	eaffff0d 	b	159b0 <HcdStart+0x144>
   15d78:	e5d0300d 	ldrb	r3, [r0, #13]
   15d7c:	e3c33002 	bic	r3, r3, #2
   15d80:	e5c0300d 	strb	r3, [r0, #13]
   15d84:	e5d0300d 	ldrb	r3, [r0, #13]
   15d88:	e3c33001 	bic	r3, r3, #1
   15d8c:	e5c0300d 	strb	r3, [r0, #13]
   15d90:	eafffef5 	b	1596c <HcdStart+0x100>
   15d94:	e5d0300d 	ldrb	r3, [r0, #13]
   15d98:	e3c33002 	bic	r3, r3, #2
   15d9c:	e5c0300d 	strb	r3, [r0, #13]
   15da0:	e5d0300d 	ldrb	r3, [r0, #13]
   15da4:	e3833001 	orr	r3, r3, #1
   15da8:	e5c0300d 	strb	r3, [r0, #13]
   15dac:	eafffeee 	b	1596c <HcdStart+0x100>
   15db0:	e3a060fc 	mov	r6, #252	; 0xfc
   15db4:	eaffff48 	b	15adc <HcdStart+0x270>
   15db8:	e3a060f9 	mov	r6, #249	; 0xf9
   15dbc:	eaffff46 	b	15adc <HcdStart+0x270>
   15dc0:	00015e28 	.word	0x00015e28
   15dc4:	0000c350 	.word	0x0000c350

00015dc8 <HcdStop>:
   15dc8:	e92d4008 	push	{r3, lr}
   15dcc:	e59f3014 	ldr	r3, [pc, #20]	; 15de8 <HcdStop+0x20>
   15dd0:	e593000c 	ldr	r0, [r3, #12]
   15dd4:	e3500000 	cmp	r0, #0
   15dd8:	1bffd817 	blne	be3c <MemoryDeallocate>
   15ddc:	e3a00000 	mov	r0, #0
   15de0:	e8bd4008 	pop	{r3, lr}
   15de4:	e12fff1e 	bx	lr
   15de8:	00015e28 	.word	0x00015e28

00015dec <HcdDeinitialise>:
   15dec:	e92d4010 	push	{r4, lr}
   15df0:	e59f402c 	ldr	r4, [pc, #44]	; 15e24 <HcdDeinitialise+0x38>
   15df4:	e5940000 	ldr	r0, [r4]
   15df8:	e3500000 	cmp	r0, #0
   15dfc:	1bffd80e 	blne	be3c <MemoryDeallocate>
   15e00:	e5940004 	ldr	r0, [r4, #4]
   15e04:	e3500000 	cmp	r0, #0
   15e08:	1bffd80b 	blne	be3c <MemoryDeallocate>
   15e0c:	e5940008 	ldr	r0, [r4, #8]
   15e10:	e3500000 	cmp	r0, #0
   15e14:	1bffd808 	blne	be3c <MemoryDeallocate>
   15e18:	e3a00000 	mov	r0, #0
   15e1c:	e8bd4010 	pop	{r4, lr}
   15e20:	e12fff1e 	bx	lr
   15e24:	00015e28 	.word	0x00015e28

00015e28 <Core>:
   15e28:	00000000                                ....

00015e2c <Host>:
   15e2c:	00000000                                ....

00015e30 <Power>:
   15e30:	00000000                                ....

00015e34 <databuffer>:
   15e34:	00000000                                ....

00015e38 <PhyInitialised>:
   15e38:	00000000 00003141 61656100 01006962     ....A1...aeabi..
   15e48:	00000027 4d524105 4d445437 02060049     '....ARM7TDMI...
   15e58:	01090108 01140212 03170115 01190118     ................
   15e68:	021e011a 0000012c                       ....,...

00015e70 <CorePhysical>:
   15e70:	00000000                                ....

00015e74 <HostPhysical>:
   15e74:	00000000                                ....

00015e78 <PowerPhysical>:
   15e78:	00000000                                ....

00015e7c <HcdProcessRootHubMessage>:
   15e7c:	e92d4070 	push	{r4, r5, r6, lr}
   15e80:	e1a0c821 	lsr	ip, r1, #16
   15e84:	e20cc003 	and	ip, ip, #3
   15e88:	e35c0003 	cmp	ip, #3
   15e8c:	e24dd008 	sub	sp, sp, #8
   15e90:	e3a0c102 	mov	ip, #-2147483648	; 0x80000000
   15e94:	03a03002 	moveq	r3, #2
   15e98:	e58d1004 	str	r1, [sp, #4]
   15e9c:	e1a04000 	mov	r4, r0
   15ea0:	e580c008 	str	ip, [r0, #8]
   15ea4:	e59d1018 	ldr	r1, [sp, #24]
   15ea8:	05803008 	streq	r3, [r0, #8]
   15eac:	0a000027 	beq	15f50 <HcdProcessRootHubMessage+0xd4>
   15eb0:	e5d1c001 	ldrb	ip, [r1, #1]
   15eb4:	e35c0009 	cmp	ip, #9
   15eb8:	979ff10c 	ldrls	pc, [pc, ip, lsl #2]
   15ebc:	ea00002e 	b	15f7c <HcdProcessRootHubMessage+0x100>
   15ec0:	00015fc0 	.word	0x00015fc0
   15ec4:	00015f60 	.word	0x00015f60
   15ec8:	00015f7c 	.word	0x00015f7c
   15ecc:	00015ee8 	.word	0x00015ee8
   15ed0:	00015f7c 	.word	0x00015f7c
   15ed4:	00016070 	.word	0x00016070
   15ed8:	00015f8c 	.word	0x00015f8c
   15edc:	00015f7c 	.word	0x00015f7c
   15ee0:	00016064 	.word	0x00016064
   15ee4:	00015f3c 	.word	0x00015f3c
   15ee8:	e5d13000 	ldrb	r3, [r1]
   15eec:	e3530020 	cmp	r3, #32
   15ef0:	0a000011 	beq	15f3c <HcdProcessRootHubMessage+0xc0>
   15ef4:	e3530023 	cmp	r3, #35	; 0x23
   15ef8:	1a00001f 	bne	15f7c <HcdProcessRootHubMessage+0x100>
   15efc:	e5d13002 	ldrb	r3, [r1, #2]
   15f00:	e3530004 	cmp	r3, #4
   15f04:	0a000145 	beq	16420 <HcdProcessRootHubMessage+0x5a4>
   15f08:	e3530008 	cmp	r3, #8
   15f0c:	1a00000a 	bne	15f3c <HcdProcessRootHubMessage+0xc0>
   15f10:	e59f5634 	ldr	r5, [pc, #1588]	; 1654c <HcdProcessRootHubMessage+0x6d0>
   15f14:	e5950000 	ldr	r0, [r5]
   15f18:	e2800040 	add	r0, r0, #64	; 0x40
   15f1c:	ebfffa65 	bl	148b8 <ReadBackReg>
   15f20:	e5950000 	ldr	r0, [r5]
   15f24:	e5d03041 	ldrb	r3, [r0, #65]	; 0x41
   15f28:	e3833010 	orr	r3, r3, #16
   15f2c:	e5c03041 	strb	r3, [r0, #65]	; 0x41
   15f30:	e3a01a01 	mov	r1, #4096	; 0x1000
   15f34:	e2800040 	add	r0, r0, #64	; 0x40
   15f38:	ebfffa37 	bl	1481c <WriteThroughRegMask>
   15f3c:	e3a05000 	mov	r5, #0
   15f40:	e5943008 	ldr	r3, [r4, #8]
   15f44:	e3c33102 	bic	r3, r3, #-2147483648	; 0x80000000
   15f48:	e5843008 	str	r3, [r4, #8]
   15f4c:	e5845408 	str	r5, [r4, #1032]	; 0x408
   15f50:	e3a00000 	mov	r0, #0
   15f54:	e28dd008 	add	sp, sp, #8
   15f58:	e8bd4070 	pop	{r4, r5, r6, lr}
   15f5c:	e12fff1e 	bx	lr
   15f60:	e5d13000 	ldrb	r3, [r1]
   15f64:	e3530020 	cmp	r3, #32
   15f68:	0afffff3 	beq	15f3c <HcdProcessRootHubMessage+0xc0>
   15f6c:	e3530023 	cmp	r3, #35	; 0x23
   15f70:	0a0000bc 	beq	16268 <HcdProcessRootHubMessage+0x3ec>
   15f74:	e3530002 	cmp	r3, #2
   15f78:	0affffef 	beq	15f3c <HcdProcessRootHubMessage+0xc0>
   15f7c:	e5943008 	ldr	r3, [r4, #8]
   15f80:	e3833002 	orr	r3, r3, #2
   15f84:	e5843008 	str	r3, [r4, #8]
   15f88:	eaffffeb 	b	15f3c <HcdProcessRootHubMessage+0xc0>
   15f8c:	e5d10000 	ldrb	r0, [r1]
   15f90:	e3500080 	cmp	r0, #128	; 0x80
   15f94:	0a00009f 	beq	16218 <HcdProcessRootHubMessage+0x39c>
   15f98:	e35000a0 	cmp	r0, #160	; 0xa0
   15f9c:	1afffff6 	bne	15f7c <HcdProcessRootHubMessage+0x100>
   15fa0:	e59f15a8 	ldr	r1, [pc, #1448]	; 16550 <HcdProcessRootHubMessage+0x6d4>
   15fa4:	e5f15058 	ldrb	r5, [r1, #88]!	; 0x58
   15fa8:	e1530005 	cmp	r3, r5
   15fac:	31a05003 	movcc	r5, r3
   15fb0:	e1a00002 	mov	r0, r2
   15fb4:	e1a02005 	mov	r2, r5
   15fb8:	ebffd7e5 	bl	bf54 <MemoryCopy>
   15fbc:	eaffffdf 	b	15f40 <HcdProcessRootHubMessage+0xc4>
   15fc0:	e5d13000 	ldrb	r3, [r1]
   15fc4:	e2433080 	sub	r3, r3, #128	; 0x80
   15fc8:	e3530023 	cmp	r3, #35	; 0x23
   15fcc:	979ff103 	ldrls	pc, [pc, r3, lsl #2]
   15fd0:	ea000039 	b	160bc <HcdProcessRootHubMessage+0x240>
   15fd4:	000160ac 	.word	0x000160ac
   15fd8:	0001609c 	.word	0x0001609c
   15fdc:	0001609c 	.word	0x0001609c
   15fe0:	000160bc 	.word	0x000160bc
   15fe4:	000160bc 	.word	0x000160bc
   15fe8:	000160bc 	.word	0x000160bc
   15fec:	000160bc 	.word	0x000160bc
   15ff0:	000160bc 	.word	0x000160bc
   15ff4:	000160bc 	.word	0x000160bc
   15ff8:	000160bc 	.word	0x000160bc
   15ffc:	000160bc 	.word	0x000160bc
   16000:	000160bc 	.word	0x000160bc
   16004:	000160bc 	.word	0x000160bc
   16008:	000160bc 	.word	0x000160bc
   1600c:	000160bc 	.word	0x000160bc
   16010:	000160bc 	.word	0x000160bc
   16014:	000160bc 	.word	0x000160bc
   16018:	000160bc 	.word	0x000160bc
   1601c:	000160bc 	.word	0x000160bc
   16020:	000160bc 	.word	0x000160bc
   16024:	000160bc 	.word	0x000160bc
   16028:	000160bc 	.word	0x000160bc
   1602c:	000160bc 	.word	0x000160bc
   16030:	000160bc 	.word	0x000160bc
   16034:	000160bc 	.word	0x000160bc
   16038:	000160bc 	.word	0x000160bc
   1603c:	000160bc 	.word	0x000160bc
   16040:	000160bc 	.word	0x000160bc
   16044:	000160bc 	.word	0x000160bc
   16048:	000160bc 	.word	0x000160bc
   1604c:	000160bc 	.word	0x000160bc
   16050:	000160bc 	.word	0x000160bc
   16054:	0001608c 	.word	0x0001608c
   16058:	000160bc 	.word	0x000160bc
   1605c:	000160bc 	.word	0x000160bc
   16060:	000160cc 	.word	0x000160cc
   16064:	e3a05001 	mov	r5, #1
   16068:	e5c25000 	strb	r5, [r2]
   1606c:	eaffffb3 	b	15f40 <HcdProcessRootHubMessage+0xc4>
   16070:	e5d13002 	ldrb	r3, [r1, #2]
   16074:	e5d12003 	ldrb	r2, [r1, #3]
   16078:	e1832402 	orr	r2, r3, r2, lsl #8
   1607c:	e59f34d0 	ldr	r3, [pc, #1232]	; 16554 <HcdProcessRootHubMessage+0x6d8>
   16080:	e3a05000 	mov	r5, #0
   16084:	e5832000 	str	r2, [r3]
   16088:	eaffffac 	b	15f40 <HcdProcessRootHubMessage+0xc4>
   1608c:	e3a03000 	mov	r3, #0
   16090:	e5823000 	str	r3, [r2]
   16094:	e3a05004 	mov	r5, #4
   16098:	eaffffa8 	b	15f40 <HcdProcessRootHubMessage+0xc4>
   1609c:	e3a03000 	mov	r3, #0
   160a0:	e1c230b0 	strh	r3, [r2]
   160a4:	e3a05002 	mov	r5, #2
   160a8:	eaffffa4 	b	15f40 <HcdProcessRootHubMessage+0xc4>
   160ac:	e3a03001 	mov	r3, #1
   160b0:	e1c230b0 	strh	r3, [r2]
   160b4:	e3a05002 	mov	r5, #2
   160b8:	eaffffa0 	b	15f40 <HcdProcessRootHubMessage+0xc4>
   160bc:	e3a03002 	mov	r3, #2
   160c0:	e5803008 	str	r3, [r0, #8]
   160c4:	e3a05000 	mov	r5, #0
   160c8:	eaffff9c 	b	15f40 <HcdProcessRootHubMessage+0xc4>
   160cc:	e59f5478 	ldr	r5, [pc, #1144]	; 1654c <HcdProcessRootHubMessage+0x6d0>
   160d0:	e5950000 	ldr	r0, [r5]
   160d4:	e2800040 	add	r0, r0, #64	; 0x40
   160d8:	e58d2000 	str	r2, [sp]
   160dc:	ebfff9f5 	bl	148b8 <ReadBackReg>
   160e0:	e59d2000 	ldr	r2, [sp]
   160e4:	e3a03000 	mov	r3, #0
   160e8:	e5823000 	str	r3, [r2]
   160ec:	e5953000 	ldr	r3, [r5]
   160f0:	e5d20000 	ldrb	r0, [r2]
   160f4:	e5d31040 	ldrb	r1, [r3, #64]	; 0x40
   160f8:	e3c00001 	bic	r0, r0, #1
   160fc:	e2011001 	and	r1, r1, #1
   16100:	e1811000 	orr	r1, r1, r0
   16104:	e5c21000 	strb	r1, [r2]
   16108:	e5d31040 	ldrb	r1, [r3, #64]	; 0x40
   1610c:	e5d20000 	ldrb	r0, [r2]
   16110:	e1a010a1 	lsr	r1, r1, #1
   16114:	e3c00002 	bic	r0, r0, #2
   16118:	e2011002 	and	r1, r1, #2
   1611c:	e1811000 	orr	r1, r1, r0
   16120:	e5c21000 	strb	r1, [r2]
   16124:	e5d30040 	ldrb	r0, [r3, #64]	; 0x40
   16128:	e20110ff 	and	r1, r1, #255	; 0xff
   1612c:	e1a003a0 	lsr	r0, r0, #7
   16130:	e3c11004 	bic	r1, r1, #4
   16134:	e1811100 	orr	r1, r1, r0, lsl #2
   16138:	e5c21000 	strb	r1, [r2]
   1613c:	e5d31040 	ldrb	r1, [r3, #64]	; 0x40
   16140:	e5d20000 	ldrb	r0, [r2]
   16144:	e1a010a1 	lsr	r1, r1, #1
   16148:	e3c00008 	bic	r0, r0, #8
   1614c:	e2011008 	and	r1, r1, #8
   16150:	e1811000 	orr	r1, r1, r0
   16154:	e5c21000 	strb	r1, [r2]
   16158:	e5d30041 	ldrb	r0, [r3, #65]	; 0x41
   1615c:	e20110ff 	and	r1, r1, #255	; 0xff
   16160:	e2000001 	and	r0, r0, #1
   16164:	e3c11010 	bic	r1, r1, #16
   16168:	e1811200 	orr	r1, r1, r0, lsl #4
   1616c:	e5c21000 	strb	r1, [r2]
   16170:	e5d20001 	ldrb	r0, [r2, #1]
   16174:	e5d31041 	ldrb	r1, [r3, #65]	; 0x41
   16178:	e3c00001 	bic	r0, r0, #1
   1617c:	e1a01d81 	lsl	r1, r1, #27
   16180:	e1801fa1 	orr	r1, r0, r1, lsr #31
   16184:	e5c21001 	strb	r1, [r2, #1]
   16188:	e5d31042 	ldrb	r1, [r3, #66]	; 0x42
   1618c:	e3110006 	tst	r1, #6
   16190:	1a0000c9 	bne	164bc <HcdProcessRootHubMessage+0x640>
   16194:	e5d21001 	ldrb	r1, [r2, #1]
   16198:	e3811004 	orr	r1, r1, #4
   1619c:	e5c21001 	strb	r1, [r2, #1]
   161a0:	e5931040 	ldr	r1, [r3, #64]	; 0x40
   161a4:	e5d20001 	ldrb	r0, [r2, #1]
   161a8:	e1a01521 	lsr	r1, r1, #10
   161ac:	e3c00008 	bic	r0, r0, #8
   161b0:	e2011008 	and	r1, r1, #8
   161b4:	e1811000 	orr	r1, r1, r0
   161b8:	e5c21001 	strb	r1, [r2, #1]
   161bc:	e5d20002 	ldrb	r0, [r2, #2]
   161c0:	e5d31040 	ldrb	r1, [r3, #64]	; 0x40
   161c4:	e3c00001 	bic	r0, r0, #1
   161c8:	e1a01f01 	lsl	r1, r1, #30
   161cc:	e1801fa1 	orr	r1, r0, r1, lsr #31
   161d0:	e5c21002 	strb	r1, [r2, #2]
   161d4:	e5d31040 	ldrb	r1, [r3, #64]	; 0x40
   161d8:	e5d20002 	ldrb	r0, [r2, #2]
   161dc:	e1a01121 	lsr	r1, r1, #2
   161e0:	e3c00002 	bic	r0, r0, #2
   161e4:	e2011002 	and	r1, r1, #2
   161e8:	e1811000 	orr	r1, r1, r0
   161ec:	e5c21002 	strb	r1, [r2, #2]
   161f0:	e5d31040 	ldrb	r1, [r3, #64]	; 0x40
   161f4:	e5d23002 	ldrb	r3, [r2, #2]
   161f8:	e1a01121 	lsr	r1, r1, #2
   161fc:	e2011008 	and	r1, r1, #8
   16200:	e20330f7 	and	r3, r3, #247	; 0xf7
   16204:	e1833001 	orr	r3, r3, r1
   16208:	e3833010 	orr	r3, r3, #16
   1620c:	e5c23002 	strb	r3, [r2, #2]
   16210:	e3a05004 	mov	r5, #4
   16214:	eaffff49 	b	15f40 <HcdProcessRootHubMessage+0xc4>
   16218:	e5d10002 	ldrb	r0, [r1, #2]
   1621c:	e5d11003 	ldrb	r1, [r1, #3]
   16220:	e1800401 	orr	r0, r0, r1, lsl #8
   16224:	e1a00800 	lsl	r0, r0, #16
   16228:	e1a01c20 	lsr	r1, r0, #24
   1622c:	e3510002 	cmp	r1, #2
   16230:	e1a00820 	lsr	r0, r0, #16
   16234:	0a0000b2 	beq	16504 <HcdProcessRootHubMessage+0x688>
   16238:	e3510003 	cmp	r1, #3
   1623c:	0a0000a5 	beq	164d8 <HcdProcessRootHubMessage+0x65c>
   16240:	e3510001 	cmp	r1, #1
   16244:	1affff4c 	bne	15f7c <HcdProcessRootHubMessage+0x100>
   16248:	e3530012 	cmp	r3, #18
   1624c:	31a05003 	movcc	r5, r3
   16250:	23a05012 	movcs	r5, #18
   16254:	e1a00002 	mov	r0, r2
   16258:	e59f12f0 	ldr	r1, [pc, #752]	; 16550 <HcdProcessRootHubMessage+0x6d4>
   1625c:	e1a02005 	mov	r2, r5
   16260:	ebffd73b 	bl	bf54 <MemoryCopy>
   16264:	eaffff35 	b	15f40 <HcdProcessRootHubMessage+0xc4>
   16268:	e5d13002 	ldrb	r3, [r1, #2]
   1626c:	e2433001 	sub	r3, r3, #1
   16270:	e3530012 	cmp	r3, #18
   16274:	979ff103 	ldrls	pc, [pc, r3, lsl #2]
   16278:	eaffff2f 	b	15f3c <HcdProcessRootHubMessage+0xc0>
   1627c:	000163f0 	.word	0x000163f0
   16280:	00016378 	.word	0x00016378
   16284:	00015f3c 	.word	0x00015f3c
   16288:	00015f3c 	.word	0x00015f3c
   1628c:	00015f3c 	.word	0x00015f3c
   16290:	00015f3c 	.word	0x00015f3c
   16294:	00015f3c 	.word	0x00015f3c
   16298:	00016358 	.word	0x00016358
   1629c:	00015f3c 	.word	0x00015f3c
   162a0:	00015f3c 	.word	0x00015f3c
   162a4:	00015f3c 	.word	0x00015f3c
   162a8:	00015f3c 	.word	0x00015f3c
   162ac:	00015f3c 	.word	0x00015f3c
   162b0:	00015f3c 	.word	0x00015f3c
   162b4:	00015f3c 	.word	0x00015f3c
   162b8:	00016328 	.word	0x00016328
   162bc:	000162f8 	.word	0x000162f8
   162c0:	00015f3c 	.word	0x00015f3c
   162c4:	000162c8 	.word	0x000162c8
   162c8:	e59f527c 	ldr	r5, [pc, #636]	; 1654c <HcdProcessRootHubMessage+0x6d0>
   162cc:	e5950000 	ldr	r0, [r5]
   162d0:	e2800040 	add	r0, r0, #64	; 0x40
   162d4:	ebfff977 	bl	148b8 <ReadBackReg>
   162d8:	e5950000 	ldr	r0, [r5]
   162dc:	e5d03040 	ldrb	r3, [r0, #64]	; 0x40
   162e0:	e3833020 	orr	r3, r3, #32
   162e4:	e5e03040 	strb	r3, [r0, #64]!	; 0x40
   162e8:	e3a01020 	mov	r1, #32
   162ec:	ebfff94a 	bl	1481c <WriteThroughRegMask>
   162f0:	e3a05000 	mov	r5, #0
   162f4:	eaffff11 	b	15f40 <HcdProcessRootHubMessage+0xc4>
   162f8:	e59f524c 	ldr	r5, [pc, #588]	; 1654c <HcdProcessRootHubMessage+0x6d0>
   162fc:	e5950000 	ldr	r0, [r5]
   16300:	e2800040 	add	r0, r0, #64	; 0x40
   16304:	ebfff96b 	bl	148b8 <ReadBackReg>
   16308:	e5950000 	ldr	r0, [r5]
   1630c:	e5d03040 	ldrb	r3, [r0, #64]	; 0x40
   16310:	e3833008 	orr	r3, r3, #8
   16314:	e5e03040 	strb	r3, [r0, #64]!	; 0x40
   16318:	e3a01008 	mov	r1, #8
   1631c:	ebfff93e 	bl	1481c <WriteThroughRegMask>
   16320:	e3a05000 	mov	r5, #0
   16324:	eaffff05 	b	15f40 <HcdProcessRootHubMessage+0xc4>
   16328:	e59f521c 	ldr	r5, [pc, #540]	; 1654c <HcdProcessRootHubMessage+0x6d0>
   1632c:	e5950000 	ldr	r0, [r5]
   16330:	e2800040 	add	r0, r0, #64	; 0x40
   16334:	ebfff95f 	bl	148b8 <ReadBackReg>
   16338:	e5950000 	ldr	r0, [r5]
   1633c:	e5d03040 	ldrb	r3, [r0, #64]	; 0x40
   16340:	e3833002 	orr	r3, r3, #2
   16344:	e5e03040 	strb	r3, [r0, #64]!	; 0x40
   16348:	e3a01002 	mov	r1, #2
   1634c:	ebfff932 	bl	1481c <WriteThroughRegMask>
   16350:	e3a05000 	mov	r5, #0
   16354:	eafffef9 	b	15f40 <HcdProcessRootHubMessage+0xc4>
   16358:	e59f51ec 	ldr	r5, [pc, #492]	; 1654c <HcdProcessRootHubMessage+0x6d0>
   1635c:	e5950000 	ldr	r0, [r5]
   16360:	e2800040 	add	r0, r0, #64	; 0x40
   16364:	ebfff953 	bl	148b8 <ReadBackReg>
   16368:	e5950000 	ldr	r0, [r5]
   1636c:	e5d03041 	ldrb	r3, [r0, #65]	; 0x41
   16370:	e3c33010 	bic	r3, r3, #16
   16374:	eafffeec 	b	15f2c <HcdProcessRootHubMessage+0xb0>
   16378:	e59f61d8 	ldr	r6, [pc, #472]	; 16558 <HcdProcessRootHubMessage+0x6dc>
   1637c:	e5960000 	ldr	r0, [r6]
   16380:	ebfff975 	bl	1495c <ClearReg>
   16384:	e59f51c0 	ldr	r5, [pc, #448]	; 1654c <HcdProcessRootHubMessage+0x6d0>
   16388:	e5960000 	ldr	r0, [r6]
   1638c:	ebfff947 	bl	148b0 <WriteThroughReg>
   16390:	e59f01c4 	ldr	r0, [pc, #452]	; 1655c <HcdProcessRootHubMessage+0x6e0>
   16394:	eb0000ea 	bl	16744 <MicroDelay>
   16398:	e5950000 	ldr	r0, [r5]
   1639c:	e2800040 	add	r0, r0, #64	; 0x40
   163a0:	ebfff944 	bl	148b8 <ReadBackReg>
   163a4:	e5950000 	ldr	r0, [r5]
   163a8:	e5d03040 	ldrb	r3, [r0, #64]	; 0x40
   163ac:	e3833040 	orr	r3, r3, #64	; 0x40
   163b0:	e5e03040 	strb	r3, [r0, #64]!	; 0x40
   163b4:	e3a01040 	mov	r1, #64	; 0x40
   163b8:	ebfff917 	bl	1481c <WriteThroughRegMask>
   163bc:	e59f019c 	ldr	r0, [pc, #412]	; 16560 <HcdProcessRootHubMessage+0x6e4>
   163c0:	eb0000df 	bl	16744 <MicroDelay>
   163c4:	e5950000 	ldr	r0, [r5]
   163c8:	e5d03040 	ldrb	r3, [r0, #64]	; 0x40
   163cc:	e3c33040 	bic	r3, r3, #64	; 0x40
   163d0:	e5c03040 	strb	r3, [r0, #64]	; 0x40
   163d4:	e5d03040 	ldrb	r3, [r0, #64]	; 0x40
   163d8:	e3c33080 	bic	r3, r3, #128	; 0x80
   163dc:	e5e03040 	strb	r3, [r0, #64]!	; 0x40
   163e0:	e3a010c0 	mov	r1, #192	; 0xc0
   163e4:	ebfff90c 	bl	1481c <WriteThroughRegMask>
   163e8:	e3a05000 	mov	r5, #0
   163ec:	eafffed3 	b	15f40 <HcdProcessRootHubMessage+0xc4>
   163f0:	e59f5154 	ldr	r5, [pc, #340]	; 1654c <HcdProcessRootHubMessage+0x6d0>
   163f4:	e5950000 	ldr	r0, [r5]
   163f8:	e2800040 	add	r0, r0, #64	; 0x40
   163fc:	ebfff92d 	bl	148b8 <ReadBackReg>
   16400:	e5950000 	ldr	r0, [r5]
   16404:	e5d03040 	ldrb	r3, [r0, #64]	; 0x40
   16408:	e3833004 	orr	r3, r3, #4
   1640c:	e5e03040 	strb	r3, [r0, #64]!	; 0x40
   16410:	e3a01004 	mov	r1, #4
   16414:	ebfff900 	bl	1481c <WriteThroughRegMask>
   16418:	e3a05000 	mov	r5, #0
   1641c:	eafffec7 	b	15f40 <HcdProcessRootHubMessage+0xc4>
   16420:	e59f5130 	ldr	r5, [pc, #304]	; 16558 <HcdProcessRootHubMessage+0x6dc>
   16424:	e5950000 	ldr	r0, [r5]
   16428:	ebfff922 	bl	148b8 <ReadBackReg>
   1642c:	e5953000 	ldr	r3, [r5]
   16430:	e5d32000 	ldrb	r2, [r3]
   16434:	e3c22020 	bic	r2, r2, #32
   16438:	e5c32000 	strb	r2, [r3]
   1643c:	e5d32000 	ldrb	r2, [r3]
   16440:	e3c22001 	bic	r2, r2, #1
   16444:	e1a00003 	mov	r0, r3
   16448:	e5c32000 	strb	r2, [r3]
   1644c:	ebfff917 	bl	148b0 <WriteThroughReg>
   16450:	e59f60f4 	ldr	r6, [pc, #244]	; 1654c <HcdProcessRootHubMessage+0x6d0>
   16454:	e5950000 	ldr	r0, [r5]
   16458:	ebfff93f 	bl	1495c <ClearReg>
   1645c:	e5950000 	ldr	r0, [r5]
   16460:	ebfff912 	bl	148b0 <WriteThroughReg>
   16464:	e5960000 	ldr	r0, [r6]
   16468:	e2800040 	add	r0, r0, #64	; 0x40
   1646c:	ebfff911 	bl	148b8 <ReadBackReg>
   16470:	e5963000 	ldr	r3, [r6]
   16474:	e5d32040 	ldrb	r2, [r3, #64]	; 0x40
   16478:	e3c22080 	bic	r2, r2, #128	; 0x80
   1647c:	e5c32040 	strb	r2, [r3, #64]	; 0x40
   16480:	e5d32041 	ldrb	r2, [r3, #65]	; 0x41
   16484:	e3822001 	orr	r2, r2, #1
   16488:	e5c32041 	strb	r2, [r3, #65]	; 0x41
   1648c:	e5d32041 	ldrb	r2, [r3, #65]	; 0x41
   16490:	e3822010 	orr	r2, r2, #16
   16494:	e2830040 	add	r0, r3, #64	; 0x40
   16498:	e5c32041 	strb	r2, [r3, #65]	; 0x41
   1649c:	e3a01d46 	mov	r1, #4480	; 0x1180
   164a0:	ebfff8dd 	bl	1481c <WriteThroughRegMask>
   164a4:	e59f00b8 	ldr	r0, [pc, #184]	; 16564 <HcdProcessRootHubMessage+0x6e8>
   164a8:	eb0000a5 	bl	16744 <MicroDelay>
   164ac:	e5960000 	ldr	r0, [r6]
   164b0:	e5d03041 	ldrb	r3, [r0, #65]	; 0x41
   164b4:	e3c33001 	bic	r3, r3, #1
   164b8:	eafffe9b 	b	15f2c <HcdProcessRootHubMessage+0xb0>
   164bc:	e5d31042 	ldrb	r1, [r3, #66]	; 0x42
   164c0:	e2011006 	and	r1, r1, #6
   164c4:	e3510004 	cmp	r1, #4
   164c8:	05d21001 	ldrbeq	r1, [r2, #1]
   164cc:	03811002 	orreq	r1, r1, #2
   164d0:	05c21001 	strbeq	r1, [r2, #1]
   164d4:	eaffff31 	b	161a0 <HcdProcessRootHubMessage+0x324>
   164d8:	e20000ff 	and	r0, r0, #255	; 0xff
   164dc:	e3500000 	cmp	r0, #0
   164e0:	1a00000f 	bne	16524 <HcdProcessRootHubMessage+0x6a8>
   164e4:	e59f1064 	ldr	r1, [pc, #100]	; 16550 <HcdProcessRootHubMessage+0x6d4>
   164e8:	e5f15030 	ldrb	r5, [r1, #48]!	; 0x30
   164ec:	e1530005 	cmp	r3, r5
   164f0:	31a05003 	movcc	r5, r3
   164f4:	e1a00002 	mov	r0, r2
   164f8:	e1a02005 	mov	r2, r5
   164fc:	ebffd694 	bl	bf54 <MemoryCopy>
   16500:	eafffe8e 	b	15f40 <HcdProcessRootHubMessage+0xc4>
   16504:	e3530019 	cmp	r3, #25
   16508:	31a05003 	movcc	r5, r3
   1650c:	23a05019 	movcs	r5, #25
   16510:	e1a00002 	mov	r0, r2
   16514:	e59f104c 	ldr	r1, [pc, #76]	; 16568 <HcdProcessRootHubMessage+0x6ec>
   16518:	e1a02005 	mov	r2, r5
   1651c:	ebffd68c 	bl	bf54 <MemoryCopy>
   16520:	eafffe86 	b	15f40 <HcdProcessRootHubMessage+0xc4>
   16524:	e3500001 	cmp	r0, #1
   16528:	1afffe83 	bne	15f3c <HcdProcessRootHubMessage+0xc0>
   1652c:	e59f101c 	ldr	r1, [pc, #28]	; 16550 <HcdProcessRootHubMessage+0x6d4>
   16530:	e5f15034 	ldrb	r5, [r1, #52]!	; 0x34
   16534:	e1530005 	cmp	r3, r5
   16538:	31a05003 	movcc	r5, r3
   1653c:	e1a00002 	mov	r0, r2
   16540:	e1a02005 	mov	r2, r5
   16544:	ebffd682 	bl	bf54 <MemoryCopy>
   16548:	eafffe7c 	b	15f40 <HcdProcessRootHubMessage+0xc4>
   1654c:	00015e2c 	.word	0x00015e2c
   16550:	0000a918 	.word	0x0000a918
   16554:	0001656c 	.word	0x0001656c
   16558:	00015e30 	.word	0x00015e30
   1655c:	00001388 	.word	0x00001388
   16560:	000186a0 	.word	0x000186a0
   16564:	0000ea60 	.word	0x0000ea60
   16568:	0000a92c 	.word	0x0000a92c

0001656c <RootHubDeviceNumber>:
   1656c:	00000000 00003141 61656100 01006962     ....A1...aeabi..
   1657c:	00000027 4d524105 4d445437 02060049     '....ARM7TDMI...
   1658c:	01090108 01140212 03170115 01190118     ................
   1659c:	021e011a 0000012c                       ....,...

000165a4 <__aeabi_uidivmod>:
   165a4:	e92d0870 	push	{r4, r5, r6, fp}
   165a8:	e28db00c 	add	fp, sp, #12
   165ac:	e24dd018 	sub	sp, sp, #24
   165b0:	e50b0020 	str	r0, [fp, #-32]
   165b4:	e50b1024 	str	r1, [fp, #-36]	; 0x24
   165b8:	e3a03000 	mov	r3, #0
   165bc:	e3a04000 	mov	r4, #0
   165c0:	e50b3014 	str	r3, [fp, #-20]
   165c4:	e50b4010 	str	r4, [fp, #-16]
   165c8:	e3a03000 	mov	r3, #0
   165cc:	e50b3018 	str	r3, [fp, #-24]
   165d0:	ea000029 	b	1667c <__aeabi_uidivmod+0xd8>
   165d4:	e51b3018 	ldr	r3, [fp, #-24]
   165d8:	e263301f 	rsb	r3, r3, #31
   165dc:	e51b2024 	ldr	r2, [fp, #-36]	; 0x24
   165e0:	e1a02312 	lsl	r2, r2, r3
   165e4:	e51b3018 	ldr	r3, [fp, #-24]
   165e8:	e263301f 	rsb	r3, r3, #31
   165ec:	e1a02332 	lsr	r2, r2, r3
   165f0:	e51b3024 	ldr	r3, [fp, #-36]	; 0x24
   165f4:	e1520003 	cmp	r2, r3
   165f8:	1a00001c 	bne	16670 <__aeabi_uidivmod+0xcc>
   165fc:	e51b3018 	ldr	r3, [fp, #-24]
   16600:	e263301f 	rsb	r3, r3, #31
   16604:	e51b2024 	ldr	r2, [fp, #-36]	; 0x24
   16608:	e1a02312 	lsl	r2, r2, r3
   1660c:	e51b3020 	ldr	r3, [fp, #-32]
   16610:	e1520003 	cmp	r2, r3
   16614:	8a000015 	bhi	16670 <__aeabi_uidivmod+0xcc>
   16618:	e51b3018 	ldr	r3, [fp, #-24]
   1661c:	e263301f 	rsb	r3, r3, #31
   16620:	e51b2024 	ldr	r2, [fp, #-36]	; 0x24
   16624:	e1a03312 	lsl	r3, r2, r3
   16628:	e51b2020 	ldr	r2, [fp, #-32]
   1662c:	e0633002 	rsb	r3, r3, r2
   16630:	e50b3020 	str	r3, [fp, #-32]
   16634:	e51b3018 	ldr	r3, [fp, #-24]
   16638:	e263301f 	rsb	r3, r3, #31
   1663c:	e3a02001 	mov	r2, #1
   16640:	e1a02312 	lsl	r2, r2, r3
   16644:	e1a03002 	mov	r3, r2
   16648:	e1a04fc3 	asr	r4, r3, #31
   1664c:	e24b2014 	sub	r2, fp, #20
   16650:	e8920006 	ldm	r2, {r1, r2}
   16654:	e1833001 	orr	r3, r3, r1
   16658:	e1844002 	orr	r4, r4, r2
   1665c:	e50b3014 	str	r3, [fp, #-20]
   16660:	e50b4010 	str	r4, [fp, #-16]
   16664:	e51b3020 	ldr	r3, [fp, #-32]
   16668:	e3530000 	cmp	r3, #0
   1666c:	0a000006 	beq	1668c <__aeabi_uidivmod+0xe8>
   16670:	e51b3018 	ldr	r3, [fp, #-24]
   16674:	e2833001 	add	r3, r3, #1
   16678:	e50b3018 	str	r3, [fp, #-24]
   1667c:	e51b3018 	ldr	r3, [fp, #-24]
   16680:	e353001f 	cmp	r3, #31
   16684:	9affffd2 	bls	165d4 <__aeabi_uidivmod+0x30>
   16688:	ea000000 	b	16690 <__aeabi_uidivmod+0xec>
   1668c:	e1a00000 	nop			; (mov r0, r0)
   16690:	e51b2020 	ldr	r2, [fp, #-32]
   16694:	e1a03002 	mov	r3, r2
   16698:	e3a04000 	mov	r4, #0
   1669c:	e1a06003 	mov	r6, r3
   166a0:	e3a05000 	mov	r5, #0
   166a4:	e24b4014 	sub	r4, fp, #20
   166a8:	e8940018 	ldm	r4, {r3, r4}
   166ac:	e1833005 	orr	r3, r3, r5
   166b0:	e1844006 	orr	r4, r4, r6
   166b4:	e50b3014 	str	r3, [fp, #-20]
   166b8:	e50b4010 	str	r4, [fp, #-16]
   166bc:	e24b4014 	sub	r4, fp, #20
   166c0:	e8940018 	ldm	r4, {r3, r4}
   166c4:	e1a00003 	mov	r0, r3
   166c8:	e1a01004 	mov	r1, r4
   166cc:	e24bd00c 	sub	sp, fp, #12
   166d0:	e8bd0870 	pop	{r4, r5, r6, fp}
   166d4:	e12fff1e 	bx	lr

000166d8 <__aeabi_uidiv>:
   166d8:	e92d4810 	push	{r4, fp, lr}
   166dc:	e28db008 	add	fp, sp, #8
   166e0:	e24dd00c 	sub	sp, sp, #12
   166e4:	e50b0010 	str	r0, [fp, #-16]
   166e8:	e50b1014 	str	r1, [fp, #-20]
   166ec:	e51b0010 	ldr	r0, [fp, #-16]
   166f0:	e51b1014 	ldr	r1, [fp, #-20]
   166f4:	ebffffaa 	bl	165a4 <__aeabi_uidivmod>
   166f8:	e1a03000 	mov	r3, r0
   166fc:	e1a04001 	mov	r4, r1
   16700:	e1a00003 	mov	r0, r3
   16704:	e24bd008 	sub	sp, fp, #8
   16708:	e8bd4810 	pop	{r4, fp, lr}
   1670c:	e12fff1e 	bx	lr
   16710:	00003141 	.word	0x00003141
   16714:	61656100 	.word	0x61656100
   16718:	01006962 	.word	0x01006962
   1671c:	00000027 	.word	0x00000027
   16720:	4d524105 	.word	0x4d524105
   16724:	4d445437 	.word	0x4d445437
   16728:	02060049 	.word	0x02060049
   1672c:	01090108 	.word	0x01090108
   16730:	01140212 	.word	0x01140212
   16734:	03170115 	.word	0x03170115
   16738:	01190118 	.word	0x01190118
   1673c:	061e011a 	.word	0x061e011a
   16740:	0000012c 	.word	0x0000012c

00016744 <MicroDelay>:
   16744:	e92d0810 	push	{r4, fp}
   16748:	e28db004 	add	fp, sp, #4
   1674c:	e24dd018 	sub	sp, sp, #24
   16750:	e50b0018 	str	r0, [fp, #-24]
   16754:	e59f3054 	ldr	r3, [pc, #84]	; 167b0 <MicroDelay+0x6c>
   16758:	e50b3008 	str	r3, [fp, #-8]
   1675c:	e51b3008 	ldr	r3, [fp, #-8]
   16760:	e8930006 	ldm	r3, {r1, r2}
   16764:	e51b0018 	ldr	r0, [fp, #-24]
   16768:	e1a03000 	mov	r3, r0
   1676c:	e3a04000 	mov	r4, #0
   16770:	e0933001 	adds	r3, r3, r1
   16774:	e0a44002 	adc	r4, r4, r2
   16778:	e50b3014 	str	r3, [fp, #-20]
   1677c:	e50b4010 	str	r4, [fp, #-16]
   16780:	ea000000 	b	16788 <MicroDelay+0x44>
   16784:	e1a00000 	nop			; (mov r0, r0)
   16788:	e51b3008 	ldr	r3, [fp, #-8]
   1678c:	e8930006 	ldm	r3, {r1, r2}
   16790:	e24b4014 	sub	r4, fp, #20
   16794:	e8940018 	ldm	r4, {r3, r4}
   16798:	e1520004 	cmp	r2, r4
   1679c:	01510003 	cmpeq	r1, r3
   167a0:	3afffff7 	bcc	16784 <MicroDelay+0x40>
   167a4:	e24bd004 	sub	sp, fp, #4
   167a8:	e8bd0810 	pop	{r4, fp}
   167ac:	e12fff1e 	bx	lr
   167b0:	20003004 	.word	0x20003004

000167b4 <PowerOnUsb>:
   167b4:	e52db004 	push	{fp}		; (str fp, [sp, #-4]!)
   167b8:	e28db000 	add	fp, sp, #0
   167bc:	e24dd00c 	sub	sp, sp, #12
   167c0:	e59f3094 	ldr	r3, [pc, #148]	; 1685c <PowerOnUsb+0xa8>
   167c4:	e50b3008 	str	r3, [fp, #-8]
   167c8:	e1a00000 	nop			; (mov r0, r0)
   167cc:	e51b3008 	ldr	r3, [fp, #-8]
   167d0:	e2833018 	add	r3, r3, #24
   167d4:	e5933000 	ldr	r3, [r3]
   167d8:	e3530000 	cmp	r3, #0
   167dc:	bafffffa 	blt	167cc <PowerOnUsb+0x18>
   167e0:	e51b3008 	ldr	r3, [fp, #-8]
   167e4:	e2833020 	add	r3, r3, #32
   167e8:	e3a02080 	mov	r2, #128	; 0x80
   167ec:	e5832000 	str	r2, [r3]
   167f0:	e1a00000 	nop			; (mov r0, r0)
   167f4:	e51b3008 	ldr	r3, [fp, #-8]
   167f8:	e2833018 	add	r3, r3, #24
   167fc:	e5933000 	ldr	r3, [r3]
   16800:	e2033101 	and	r3, r3, #1073741824	; 0x40000000
   16804:	e3530000 	cmp	r3, #0
   16808:	1afffff9 	bne	167f4 <PowerOnUsb+0x40>
   1680c:	e51b3008 	ldr	r3, [fp, #-8]
   16810:	e5933000 	ldr	r3, [r3]
   16814:	e50b300c 	str	r3, [fp, #-12]
   16818:	e51b300c 	ldr	r3, [fp, #-12]
   1681c:	e203300f 	and	r3, r3, #15
   16820:	e3530000 	cmp	r3, #0
   16824:	1afffff1 	bne	167f0 <PowerOnUsb+0x3c>
   16828:	e51b300c 	ldr	r3, [fp, #-12]
   1682c:	e3530080 	cmp	r3, #128	; 0x80
   16830:	1a000001 	bne	1683c <PowerOnUsb+0x88>
   16834:	e3a03000 	mov	r3, #0
   16838:	ea000000 	b	16840 <PowerOnUsb+0x8c>
   1683c:	e3a030fc 	mov	r3, #252	; 0xfc
   16840:	e20330ff 	and	r3, r3, #255	; 0xff
   16844:	e1a03c03 	lsl	r3, r3, #24
   16848:	e1a03c43 	asr	r3, r3, #24
   1684c:	e1a00003 	mov	r0, r3
   16850:	e28bd000 	add	sp, fp, #0
   16854:	e8bd0800 	pop	{fp}
   16858:	e12fff1e 	bx	lr
   1685c:	2000b880 	.word	0x2000b880
   16860:	00003141 	.word	0x00003141
   16864:	61656100 	.word	0x61656100
   16868:	01006962 	.word	0x01006962
   1686c:	00000027 	.word	0x00000027
   16870:	4d524105 	.word	0x4d524105
   16874:	4d445437 	.word	0x4d445437
   16878:	02060049 	.word	0x02060049
   1687c:	01090108 	.word	0x01090108
   16880:	01140212 	.word	0x01140212
   16884:	03170115 	.word	0x03170115
   16888:	01190118 	.word	0x01190118
   1688c:	061e011a 	.word	0x061e011a
   16890:	Address 0x0000000000016890 is out of bounds.


Disassembly of section .text:

00016894 <GetMailboxBase>:
   16894:	e59f0060 	ldr	r0, [pc, #96]	; 168fc <wait2$+0x14>
   16898:	e1a0f00e 	mov	pc, lr

0001689c <MailboxRead>:
   1689c:	e200300f 	and	r3, r0, #15
   168a0:	e1a0200e 	mov	r2, lr
   168a4:	ebfffffa 	bl	16894 <GetMailboxBase>
   168a8:	e1a0e002 	mov	lr, r2

000168ac <rightmail$>:
   168ac:	e5902018 	ldr	r2, [r0, #24]
   168b0:	e3120101 	tst	r2, #1073741824	; 0x40000000
   168b4:	1afffffc 	bne	168ac <rightmail$>
   168b8:	e5901000 	ldr	r1, [r0]
   168bc:	e201200f 	and	r2, r1, #15
   168c0:	e1320003 	teq	r2, r3
   168c4:	1afffff8 	bne	168ac <rightmail$>
   168c8:	e3c1000f 	bic	r0, r1, #15
   168cc:	e1a0f00e 	mov	pc, lr

000168d0 <MailboxWrite>:
   168d0:	e201200f 	and	r2, r1, #15
   168d4:	e3c0100f 	bic	r1, r0, #15
   168d8:	e1811002 	orr	r1, r1, r2
   168dc:	e1a0200e 	mov	r2, lr
   168e0:	ebffffeb 	bl	16894 <GetMailboxBase>
   168e4:	e1a0e002 	mov	lr, r2

000168e8 <wait2$>:
   168e8:	e5902018 	ldr	r2, [r0, #24]
   168ec:	e3120102 	tst	r2, #-2147483648	; 0x80000000
   168f0:	1afffffc 	bne	168e8 <wait2$>
   168f4:	e5801020 	str	r1, [r0, #32]
   168f8:	e1a0f00e 	mov	pc, lr
   168fc:	2000b880 	.word	0x2000b880

00016900 <InitialiseFrameBuffer>:
   16900:	e3500a01 	cmp	r0, #4096	; 0x1000
   16904:	93510a01 	cmpls	r1, #4096	; 0x1000
   16908:	93520020 	cmpls	r2, #32
   1690c:	83a00000 	movhi	r0, #0
   16910:	81a0f00e 	movhi	pc, lr
   16914:	e92d4010 	push	{r4, lr}
   16918:	e59f403c 	ldr	r4, [pc, #60]	; 1695c <InitialiseFrameBuffer+0x5c>
   1691c:	e5840000 	str	r0, [r4]
   16920:	e5841004 	str	r1, [r4, #4]
   16924:	e5840008 	str	r0, [r4, #8]
   16928:	e584100c 	str	r1, [r4, #12]
   1692c:	e5842014 	str	r2, [r4, #20]
   16930:	e1a00004 	mov	r0, r4
   16934:	e2800101 	add	r0, r0, #1073741824	; 0x40000000
   16938:	e3a01001 	mov	r1, #1
   1693c:	ebffffe3 	bl	168d0 <MailboxWrite>
   16940:	e3a00001 	mov	r0, #1
   16944:	ebffffd4 	bl	1689c <MailboxRead>
   16948:	e3300000 	teq	r0, #0
   1694c:	13a00000 	movne	r0, #0
   16950:	18bd8010 	popne	{r4, pc}
   16954:	e1a00004 	mov	r0, r4
   16958:	e8bd8010 	pop	{r4, pc}
   1695c:	00009000 	.word	0x00009000

00016960 <ReverseString>:
   16960:	e0811000 	add	r1, r1, r0
   16964:	e2411001 	sub	r1, r1, #1

00016968 <revLoop$>:
   16968:	e1510000 	cmp	r1, r0
   1696c:	91a0f00e 	movls	pc, lr
   16970:	e5d02000 	ldrb	r2, [r0]
   16974:	e5d13000 	ldrb	r3, [r1]
   16978:	e5c03000 	strb	r3, [r0]
   1697c:	e5c12000 	strb	r2, [r1]
   16980:	e2800001 	add	r0, r0, #1
   16984:	e2411001 	sub	r1, r1, #1
   16988:	eafffff6 	b	16968 <revLoop$>

0001698c <UnsignedString>:
   1698c:	e92d40f0 	push	{r4, r5, r6, r7, lr}
   16990:	e1a05001 	mov	r5, r1
   16994:	e1a06002 	mov	r6, r2
   16998:	e3a07000 	mov	r7, #0

0001699c <charLoop$>:
   1699c:	e1a01006 	mov	r1, r6
   169a0:	eb00018a 	bl	16fd0 <DivideU32>
   169a4:	e3510009 	cmp	r1, #9
   169a8:	92811030 	addls	r1, r1, #48	; 0x30
   169ac:	82811057 	addhi	r1, r1, #87	; 0x57
   169b0:	e3350000 	teq	r5, #0
   169b4:	17c51007 	strbne	r1, [r5, r7]
   169b8:	e2877001 	add	r7, r7, #1
   169bc:	e3300000 	teq	r0, #0
   169c0:	1afffff5 	bne	1699c <charLoop$>
   169c4:	e3350000 	teq	r5, #0
   169c8:	11a00005 	movne	r0, r5
   169cc:	11a01007 	movne	r1, r7
   169d0:	1bffffe2 	blne	16960 <ReverseString>
   169d4:	e1a00007 	mov	r0, r7
   169d8:	e8bd80f0 	pop	{r4, r5, r6, r7, pc}

000169dc <SignedString>:
   169dc:	e3500000 	cmp	r0, #0
   169e0:	aaffffe9 	bge	1698c <UnsignedString>
   169e4:	e2600000 	rsb	r0, r0, #0
   169e8:	e3310000 	teq	r1, #0
   169ec:	13a0302d 	movne	r3, #45	; 0x2d
   169f0:	15c13000 	strbne	r3, [r1]
   169f4:	12811001 	addne	r1, r1, #1
   169f8:	e92d4000 	push	{lr}
   169fc:	ebffffe2 	bl	1698c <UnsignedString>
   16a00:	e2800001 	add	r0, r0, #1
   16a04:	e8bd8000 	pop	{pc}

00016a08 <FormatString>:
   16a08:	e92d43f0 	push	{r4, r5, r6, r7, r8, r9, lr}
   16a0c:	e1a04000 	mov	r4, r0
   16a10:	e1a05001 	mov	r5, r1
   16a14:	e1a06002 	mov	r6, r2
   16a18:	e1a07003 	mov	r7, r3
   16a1c:	e28d801c 	add	r8, sp, #28
   16a20:	e3a09000 	mov	r9, #0

00016a24 <formatLoop$>:
   16a24:	e2555001 	subs	r5, r5, #1
   16a28:	b1a00009 	movlt	r0, r9
   16a2c:	b8bd83f0 	poplt	{r4, r5, r6, r7, r8, r9, pc}
   16a30:	e5d40000 	ldrb	r0, [r4]
   16a34:	e2844001 	add	r4, r4, #1
   16a38:	e3300025 	teq	r0, #37	; 0x25
   16a3c:	0a000004 	beq	16a54 <formatArg$>

00016a40 <formatChar$>:
   16a40:	e3360000 	teq	r6, #0
   16a44:	15c60000 	strbne	r0, [r6]
   16a48:	12866001 	addne	r6, r6, #1
   16a4c:	e2899001 	add	r9, r9, #1
   16a50:	eafffff3 	b	16a24 <formatLoop$>

00016a54 <formatArg$>:
   16a54:	e2555001 	subs	r5, r5, #1
   16a58:	b1a00009 	movlt	r0, r9
   16a5c:	b8bd83f0 	poplt	{r4, r5, r6, r7, r8, r9, pc}
   16a60:	e5d40000 	ldrb	r0, [r4]
   16a64:	e2844001 	add	r4, r4, #1
   16a68:	e3300025 	teq	r0, #37	; 0x25
   16a6c:	0afffff3 	beq	16a40 <formatChar$>
   16a70:	e3300063 	teq	r0, #99	; 0x63
   16a74:	01a00007 	moveq	r0, r7
   16a78:	05987000 	ldreq	r7, [r8]
   16a7c:	02888004 	addeq	r8, r8, #4
   16a80:	0affffee 	beq	16a40 <formatChar$>
   16a84:	e3300073 	teq	r0, #115	; 0x73
   16a88:	0a000007 	beq	16aac <formatString$>
   16a8c:	e3300064 	teq	r0, #100	; 0x64
   16a90:	0a000010 	beq	16ad8 <formatSigned$>
   16a94:	e3300075 	teq	r0, #117	; 0x75
   16a98:	13300078 	teqne	r0, #120	; 0x78
   16a9c:	13300062 	teqne	r0, #98	; 0x62
   16aa0:	1330006f 	teqne	r0, #111	; 0x6f
   16aa4:	0a000015 	beq	16b00 <formatUnsigned$>
   16aa8:	eaffffdd 	b	16a24 <formatLoop$>

00016aac <formatString$>:
   16aac:	e5d70000 	ldrb	r0, [r7]
   16ab0:	e3300000 	teq	r0, #0
   16ab4:	05987000 	ldreq	r7, [r8]
   16ab8:	02888004 	addeq	r8, r8, #4
   16abc:	0affffd8 	beq	16a24 <formatLoop$>
   16ac0:	e2899001 	add	r9, r9, #1
   16ac4:	e3360000 	teq	r6, #0
   16ac8:	15c60000 	strbne	r0, [r6]
   16acc:	12866001 	addne	r6, r6, #1
   16ad0:	e2877001 	add	r7, r7, #1
   16ad4:	eafffff4 	b	16aac <formatString$>

00016ad8 <formatSigned$>:
   16ad8:	e1a00007 	mov	r0, r7
   16adc:	e5987000 	ldr	r7, [r8]
   16ae0:	e2888004 	add	r8, r8, #4
   16ae4:	e1a01006 	mov	r1, r6
   16ae8:	e3a0200a 	mov	r2, #10
   16aec:	ebffffba 	bl	169dc <SignedString>
   16af0:	e3360000 	teq	r6, #0
   16af4:	10866000 	addne	r6, r6, r0
   16af8:	e0899000 	add	r9, r9, r0
   16afc:	eaffffc8 	b	16a24 <formatLoop$>

00016b00 <formatUnsigned$>:
   16b00:	e3300075 	teq	r0, #117	; 0x75
   16b04:	03a0200a 	moveq	r2, #10
   16b08:	e3300078 	teq	r0, #120	; 0x78
   16b0c:	03a02010 	moveq	r2, #16
   16b10:	e3300062 	teq	r0, #98	; 0x62
   16b14:	03a02002 	moveq	r2, #2
   16b18:	e330006f 	teq	r0, #111	; 0x6f
   16b1c:	03a02008 	moveq	r2, #8
   16b20:	e1a00007 	mov	r0, r7
   16b24:	e5987000 	ldr	r7, [r8]
   16b28:	e2888004 	add	r8, r8, #4
   16b2c:	e1a01006 	mov	r1, r6
   16b30:	ebffff95 	bl	1698c <UnsignedString>
   16b34:	e3360000 	teq	r6, #0
   16b38:	10866000 	addne	r6, r6, r0
   16b3c:	e0899000 	add	r9, r9, r0
   16b40:	eaffffb7 	b	16a24 <formatLoop$>

00016b44 <GetSystemTimerBase>:
   16b44:	e59f0034 	ldr	r0, [pc, #52]	; 16b80 <loop$+0x14>
   16b48:	e1a0f00e 	mov	pc, lr

00016b4c <GetTimeStamp>:
   16b4c:	e92d4000 	push	{lr}
   16b50:	ebfffffb 	bl	16b44 <GetSystemTimerBase>
   16b54:	e1c000d4 	ldrd	r0, [r0, #4]
   16b58:	e8bd8000 	pop	{pc}

00016b5c <Wait>:
   16b5c:	e1a02000 	mov	r2, r0
   16b60:	e92d4000 	push	{lr}
   16b64:	ebfffff8 	bl	16b4c <GetTimeStamp>
   16b68:	e1a03000 	mov	r3, r0

00016b6c <loop$>:
   16b6c:	ebfffff6 	bl	16b4c <GetTimeStamp>
   16b70:	e0401003 	sub	r1, r0, r3
   16b74:	e1510002 	cmp	r1, r2
   16b78:	9afffffb 	bls	16b6c <loop$>
   16b7c:	e8bd8000 	pop	{pc}
   16b80:	20003000 	.word	0x20003000

00016b84 <SetForeColour>:
   16b84:	e3500801 	cmp	r0, #65536	; 0x10000
   16b88:	81a0f00e 	movhi	pc, lr
   16b8c:	01a0f00e 	moveq	pc, lr
   16b90:	e59f11b4 	ldr	r1, [pc, #436]	; 16d4c <stringLoopEnd$+0x4>
   16b94:	e1c100b0 	strh	r0, [r1]
   16b98:	e1a0f00e 	mov	pc, lr

00016b9c <SetGraphicsAddress>:
   16b9c:	e59f11ac 	ldr	r1, [pc, #428]	; 16d50 <stringLoopEnd$+0x8>
   16ba0:	e5810000 	str	r0, [r1]
   16ba4:	e1a0f00e 	mov	pc, lr

00016ba8 <DrawPixel>:
   16ba8:	e59f21a0 	ldr	r2, [pc, #416]	; 16d50 <stringLoopEnd$+0x8>
   16bac:	e5922000 	ldr	r2, [r2]
   16bb0:	e5923004 	ldr	r3, [r2, #4]
   16bb4:	e2433001 	sub	r3, r3, #1
   16bb8:	e1510003 	cmp	r1, r3
   16bbc:	81a0f00e 	movhi	pc, lr
   16bc0:	e5923000 	ldr	r3, [r2]
   16bc4:	e2433001 	sub	r3, r3, #1
   16bc8:	e1500003 	cmp	r0, r3
   16bcc:	81a0f00e 	movhi	pc, lr
   16bd0:	e5922020 	ldr	r2, [r2, #32]
   16bd4:	e2833001 	add	r3, r3, #1
   16bd8:	e0200391 	mla	r0, r1, r3, r0
   16bdc:	e0822080 	add	r2, r2, r0, lsl #1
   16be0:	e59f3164 	ldr	r3, [pc, #356]	; 16d4c <stringLoopEnd$+0x4>
   16be4:	e1d330b0 	ldrh	r3, [r3]
   16be8:	e1c230b0 	strh	r3, [r2]
   16bec:	e1a0f00e 	mov	pc, lr

00016bf0 <DrawLine>:
   16bf0:	e92d5ff0 	push	{r4, r5, r6, r7, r8, r9, sl, fp, ip, lr}
   16bf4:	e1a09000 	mov	r9, r0
   16bf8:	e1a0a002 	mov	sl, r2
   16bfc:	e1a0b001 	mov	fp, r1
   16c00:	e1a0c003 	mov	ip, r3
   16c04:	e159000a 	cmp	r9, sl
   16c08:	c049400a 	subgt	r4, r9, sl
   16c0c:	c3e06000 	mvngt	r6, #0
   16c10:	d04a4009 	suble	r4, sl, r9
   16c14:	d3a06001 	movle	r6, #1
   16c18:	e15b000c 	cmp	fp, ip
   16c1c:	c04c500b 	subgt	r5, ip, fp
   16c20:	c3e07000 	mvngt	r7, #0
   16c24:	d04b500c 	suble	r5, fp, ip
   16c28:	d3a07001 	movle	r7, #1
   16c2c:	e0848005 	add	r8, r4, r5
   16c30:	e08aa006 	add	sl, sl, r6
   16c34:	e08cc007 	add	ip, ip, r7

00016c38 <pixelLoop$>:
   16c38:	e139000a 	teq	r9, sl
   16c3c:	113b000c 	teqne	fp, ip
   16c40:	08bd9ff0 	popeq	{r4, r5, r6, r7, r8, r9, sl, fp, ip, pc}
   16c44:	e1a00009 	mov	r0, r9
   16c48:	e1a0100b 	mov	r1, fp
   16c4c:	ebffffd5 	bl	16ba8 <DrawPixel>
   16c50:	e1550088 	cmp	r5, r8, lsl #1
   16c54:	d0888005 	addle	r8, r8, r5
   16c58:	d0899006 	addle	r9, r9, r6
   16c5c:	e1540088 	cmp	r4, r8, lsl #1
   16c60:	a0888004 	addge	r8, r8, r4
   16c64:	a08bb007 	addge	fp, fp, r7
   16c68:	eafffff2 	b	16c38 <pixelLoop$>

00016c6c <DrawCharacter>:
   16c6c:	e350007f 	cmp	r0, #127	; 0x7f
   16c70:	83a00000 	movhi	r0, #0
   16c74:	83a01000 	movhi	r1, #0
   16c78:	81a0f00e 	movhi	pc, lr
   16c7c:	e1a04001 	mov	r4, r1
   16c80:	e1a05002 	mov	r5, r2
   16c84:	e92d41f0 	push	{r4, r5, r6, r7, r8, lr}
   16c88:	e59f60c4 	ldr	r6, [pc, #196]	; 16d54 <stringLoopEnd$+0xc>
   16c8c:	e0866200 	add	r6, r6, r0, lsl #4

00016c90 <lineLoop$>:
   16c90:	e5d67000 	ldrb	r7, [r6]
   16c94:	e3a08008 	mov	r8, #8

00016c98 <charPixelLoop$>:
   16c98:	e2588001 	subs	r8, r8, #1
   16c9c:	ba000006 	blt	16cbc <charPixelLoopEnd$>
   16ca0:	e1a07087 	lsl	r7, r7, #1
   16ca4:	e3170c01 	tst	r7, #256	; 0x100
   16ca8:	0afffffa 	beq	16c98 <charPixelLoop$>
   16cac:	e0840008 	add	r0, r4, r8
   16cb0:	e1a01005 	mov	r1, r5
   16cb4:	ebffffbb 	bl	16ba8 <DrawPixel>
   16cb8:	eafffff6 	b	16c98 <charPixelLoop$>

00016cbc <charPixelLoopEnd$>:
   16cbc:	e2855001 	add	r5, r5, #1
   16cc0:	e2866001 	add	r6, r6, #1
   16cc4:	e316000f 	tst	r6, #15
   16cc8:	1afffff0 	bne	16c90 <lineLoop$>
   16ccc:	e3a00008 	mov	r0, #8
   16cd0:	e3a01010 	mov	r1, #16
   16cd4:	e8bd81f0 	pop	{r4, r5, r6, r7, r8, pc}

00016cd8 <DrawString>:
   16cd8:	e92d43f0 	push	{r4, r5, r6, r7, r8, r9, lr}
   16cdc:	e1a07000 	mov	r7, r0
   16ce0:	e1a04002 	mov	r4, r2
   16ce4:	e1a06004 	mov	r6, r4
   16ce8:	e1a05003 	mov	r5, r3
   16cec:	e1a08001 	mov	r8, r1

00016cf0 <stringLoop$>:
   16cf0:	e2588001 	subs	r8, r8, #1
   16cf4:	ba000013 	blt	16d48 <stringLoopEnd$>
   16cf8:	e5d79000 	ldrb	r9, [r7]
   16cfc:	e2877001 	add	r7, r7, #1
   16d00:	e1a00009 	mov	r0, r9
   16d04:	e1a01004 	mov	r1, r4
   16d08:	e1a02005 	mov	r2, r5
   16d0c:	ebffffd6 	bl	16c6c <DrawCharacter>
   16d10:	e339000a 	teq	r9, #10
   16d14:	01a04006 	moveq	r4, r6
   16d18:	00855001 	addeq	r5, r5, r1
   16d1c:	0afffff3 	beq	16cf0 <stringLoop$>
   16d20:	e3390009 	teq	r9, #9
   16d24:	10844000 	addne	r4, r4, r0
   16d28:	1afffff0 	bne	16cf0 <stringLoop$>
   16d2c:	e0800100 	add	r0, r0, r0, lsl #2
   16d30:	e1a01006 	mov	r1, r6

00016d34 <stringLoopTab$>:
   16d34:	e0811000 	add	r1, r1, r0
   16d38:	e1540001 	cmp	r4, r1
   16d3c:	aafffffc 	bge	16d34 <stringLoopTab$>
   16d40:	e1a04001 	mov	r4, r1
   16d44:	eaffffe9 	b	16cf0 <stringLoop$>

00016d48 <stringLoopEnd$>:
   16d48:	e8bd83f0 	pop	{r4, r5, r6, r7, r8, r9, pc}
   16d4c:	0000a000 	.word	0x0000a000
   16d50:	0000a004 	.word	0x0000a004
   16d54:	0000a010 	.word	0x0000a010

00016d58 <GetGpioAddress>:
   16d58:	e59f008c 	ldr	r0, [pc, #140]	; 16dec <SetGpio+0x3c>
   16d5c:	e1a0f00e 	mov	pc, lr

00016d60 <SetGpioFunction>:
   16d60:	e3500035 	cmp	r0, #53	; 0x35
   16d64:	93510007 	cmpls	r1, #7
   16d68:	81a0f00e 	movhi	pc, lr
   16d6c:	e92d4000 	push	{lr}
   16d70:	e1a02000 	mov	r2, r0
   16d74:	ebfffff7 	bl	16d58 <GetGpioAddress>

00016d78 <functionLoop$>:
   16d78:	e3520009 	cmp	r2, #9
   16d7c:	8242200a 	subhi	r2, r2, #10
   16d80:	82800004 	addhi	r0, r0, #4
   16d84:	8afffffb 	bhi	16d78 <functionLoop$>
   16d88:	e0822082 	add	r2, r2, r2, lsl #1
   16d8c:	e1a01211 	lsl	r1, r1, r2
   16d90:	e3a03007 	mov	r3, #7
   16d94:	e1a03213 	lsl	r3, r3, r2
   16d98:	e1e03003 	mvn	r3, r3
   16d9c:	e5902000 	ldr	r2, [r0]
   16da0:	e0022003 	and	r2, r2, r3
   16da4:	e1811002 	orr	r1, r1, r2
   16da8:	e5801000 	str	r1, [r0]
   16dac:	e8bd8000 	pop	{pc}

00016db0 <SetGpio>:
   16db0:	e3500035 	cmp	r0, #53	; 0x35
   16db4:	81a0f00e 	movhi	pc, lr
   16db8:	e92d4000 	push	{lr}
   16dbc:	e1a02000 	mov	r2, r0
   16dc0:	ebffffe4 	bl	16d58 <GetGpioAddress>
   16dc4:	e1a032a2 	lsr	r3, r2, #5
   16dc8:	e1a03103 	lsl	r3, r3, #2
   16dcc:	e0800003 	add	r0, r0, r3
   16dd0:	e202201f 	and	r2, r2, #31
   16dd4:	e3a03001 	mov	r3, #1
   16dd8:	e1a03213 	lsl	r3, r3, r2
   16ddc:	e3310000 	teq	r1, #0
   16de0:	05803028 	streq	r3, [r0, #40]	; 0x28
   16de4:	1580301c 	strne	r3, [r0, #28]
   16de8:	e8bd8000 	pop	{pc}
   16dec:	20200000 	.word	0x20200000

00016df0 <main>:
   16df0:	e3a0d902 	mov	sp, #32768	; 0x8000
   16df4:	e3a00b01 	mov	r0, #1024	; 0x400
   16df8:	e3a01c03 	mov	r1, #768	; 0x300
   16dfc:	e3a02010 	mov	r2, #16
   16e00:	ebfffebe 	bl	16900 <InitialiseFrameBuffer>
   16e04:	e3300000 	teq	r0, #0
   16e08:	1a000006 	bne	16e28 <noError$>
   16e0c:	e3a00010 	mov	r0, #16
   16e10:	e3a01001 	mov	r1, #1
   16e14:	ebffffd1 	bl	16d60 <SetGpioFunction>
   16e18:	e3a00010 	mov	r0, #16
   16e1c:	e3a01000 	mov	r1, #0
   16e20:	ebffffe2 	bl	16db0 <SetGpio>

00016e24 <error$>:
   16e24:	eafffffe 	b	16e24 <error$>

00016e28 <noError$>:
   16e28:	e1a04000 	mov	r4, r0
   16e2c:	ebffff5a 	bl	16b9c <SetGraphicsAddress>
   16e30:	ebffeb86 	bl	11c50 <UsbInitialise>
   16e34:	e3a04000 	mov	r4, #0
   16e38:	e3a05000 	mov	r5, #0

00016e3c <loopContinue$>:
   16e3c:	eb00000c 	bl	16e74 <KeyboardUpdate>
   16e40:	eb000038 	bl	16f28 <KeyboardGetChar>
   16e44:	e3300000 	teq	r0, #0
   16e48:	0afffffb 	beq	16e3c <loopContinue$>
   16e4c:	e1a01004 	mov	r1, r4
   16e50:	e1a02005 	mov	r2, r5
   16e54:	ebffff84 	bl	16c6c <DrawCharacter>
   16e58:	e0844000 	add	r4, r4, r0
   16e5c:	e3340b01 	teq	r4, #1024	; 0x400
   16e60:	00855001 	addeq	r5, r5, r1
   16e64:	03a04000 	moveq	r4, #0
   16e68:	03350c03 	teqeq	r5, #768	; 0x300
   16e6c:	03a05000 	moveq	r5, #0
   16e70:	eafffff1 	b	16e3c <loopContinue$>

00016e74 <KeyboardUpdate>:
   16e74:	e92d4030 	push	{r4, r5, lr}
   16e78:	e59f0128 	ldr	r0, [pc, #296]	; 16fa8 <keyboardGetCharReturn$+0x4>
   16e7c:	e5904000 	ldr	r4, [r0]
   16e80:	e3340000 	teq	r4, #0
   16e84:	1a00000c 	bne	16ebc <haveKeyboard$>

00016e88 <getKeyboard$>:
   16e88:	ebffeb87 	bl	11cac <UsbCheckForChange>
   16e8c:	ebffd0d2 	bl	b1dc <KeyboardCount>
   16e90:	e3300000 	teq	r0, #0
   16e94:	059f110c 	ldreq	r1, [pc, #268]	; 16fa8 <keyboardGetCharReturn$+0x4>
   16e98:	05810000 	streq	r0, [r1]
   16e9c:	0a000014 	beq	16ef4 <return$>
   16ea0:	e3a00000 	mov	r0, #0
   16ea4:	ebffcf07 	bl	aac8 <KeyboardGetAddress>
   16ea8:	e59f10f8 	ldr	r1, [pc, #248]	; 16fa8 <keyboardGetCharReturn$+0x4>
   16eac:	e5810000 	str	r0, [r1]
   16eb0:	e3300000 	teq	r0, #0
   16eb4:	0a00000e 	beq	16ef4 <return$>
   16eb8:	e1a04000 	mov	r4, r0

00016ebc <haveKeyboard$>:
   16ebc:	e3a05000 	mov	r5, #0

00016ec0 <saveKeys$>:
   16ec0:	e1a00004 	mov	r0, r4
   16ec4:	e1a01005 	mov	r1, r5
   16ec8:	ebffd28c 	bl	b900 <KeyboardGetKeyDown>
   16ecc:	e59f10d8 	ldr	r1, [pc, #216]	; 16fac <keyboardGetCharReturn$+0x8>
   16ed0:	e0811085 	add	r1, r1, r5, lsl #1
   16ed4:	e1c100b0 	strh	r0, [r1]
   16ed8:	e2855001 	add	r5, r5, #1
   16edc:	e3550006 	cmp	r5, #6
   16ee0:	bafffff6 	blt	16ec0 <saveKeys$>
   16ee4:	e1a00004 	mov	r0, r4
   16ee8:	ebffd159 	bl	b454 <KeyboardPoll>
   16eec:	e3300000 	teq	r0, #0
   16ef0:	1affffe4 	bne	16e88 <getKeyboard$>

00016ef4 <return$>:
   16ef4:	e8bd8030 	pop	{r4, r5, pc}

00016ef8 <KeyWasDown>:
   16ef8:	e59f10ac 	ldr	r1, [pc, #172]	; 16fac <keyboardGetCharReturn$+0x8>
   16efc:	e3a02000 	mov	r2, #0

00016f00 <keySearch$>:
   16f00:	e1d130b0 	ldrh	r3, [r1]
   16f04:	e1330000 	teq	r3, r0
   16f08:	03a00001 	moveq	r0, #1
   16f0c:	01a0f00e 	moveq	pc, lr
   16f10:	e2811002 	add	r1, r1, #2
   16f14:	e2822001 	add	r2, r2, #1
   16f18:	e3520006 	cmp	r2, #6
   16f1c:	bafffff7 	blt	16f00 <keySearch$>
   16f20:	e3a00000 	mov	r0, #0
   16f24:	e1a0f00e 	mov	pc, lr

00016f28 <KeyboardGetChar>:
   16f28:	e59f0078 	ldr	r0, [pc, #120]	; 16fa8 <keyboardGetCharReturn$+0x4>
   16f2c:	e5901000 	ldr	r1, [r0]
   16f30:	e3310000 	teq	r1, #0
   16f34:	03a00000 	moveq	r0, #0
   16f38:	01a0f00e 	moveq	pc, lr
   16f3c:	e92d4070 	push	{r4, r5, r6, lr}
   16f40:	e1a04001 	mov	r4, r1
   16f44:	e3a05000 	mov	r5, #0

00016f48 <keyLoop$>:
   16f48:	e1a00004 	mov	r0, r4
   16f4c:	e1a01005 	mov	r1, r5
   16f50:	ebffd26a 	bl	b900 <KeyboardGetKeyDown>
   16f54:	e3300000 	teq	r0, #0
   16f58:	0a000010 	beq	16fa0 <keyLoopBreak$>
   16f5c:	e1a06000 	mov	r6, r0
   16f60:	ebffffe4 	bl	16ef8 <KeyWasDown>
   16f64:	e3300000 	teq	r0, #0
   16f68:	1a000009 	bne	16f94 <keyLoopContinue$>
   16f6c:	e3560068 	cmp	r6, #104	; 0x68
   16f70:	aa000007 	bge	16f94 <keyLoopContinue$>
   16f74:	e1a00004 	mov	r0, r4
   16f78:	ebffd206 	bl	b798 <KeyboardGetModifiers>
   16f7c:	e3100022 	tst	r0, #34	; 0x22
   16f80:	059f0028 	ldreq	r0, [pc, #40]	; 16fb0 <keyboardGetCharReturn$+0xc>
   16f84:	159f0028 	ldrne	r0, [pc, #40]	; 16fb4 <keyboardGetCharReturn$+0x10>
   16f88:	e7d00006 	ldrb	r0, [r0, r6]
   16f8c:	e3300000 	teq	r0, #0
   16f90:	1a000003 	bne	16fa4 <keyboardGetCharReturn$>

00016f94 <keyLoopContinue$>:
   16f94:	e2855001 	add	r5, r5, #1
   16f98:	e3550006 	cmp	r5, #6
   16f9c:	baffffe9 	blt	16f48 <keyLoop$>

00016fa0 <keyLoopBreak$>:
   16fa0:	e3a00000 	mov	r0, #0

00016fa4 <keyboardGetCharReturn$>:
   16fa4:	e8bd8070 	pop	{r4, r5, r6, pc}
   16fa8:	0000a810 	.word	0x0000a810
   16fac:	0000a814 	.word	0x0000a814
   16fb0:	0000a820 	.word	0x0000a820
   16fb4:	0000a888 	.word	0x0000a888

00016fb8 <Random>:
   16fb8:	e3a01cef 	mov	r1, #61184	; 0xef00
   16fbc:	e0010190 	mul	r1, r0, r1
   16fc0:	e0010190 	mul	r1, r0, r1
   16fc4:	e0811000 	add	r1, r1, r0
   16fc8:	e2810049 	add	r0, r1, #73	; 0x49
   16fcc:	e1a0f00e 	mov	pc, lr

00016fd0 <DivideU32>:
   16fd0:	e16f2f11 	clz	r2, r1
   16fd4:	e16f3f10 	clz	r3, r0
   16fd8:	e0522003 	subs	r2, r2, r3
   16fdc:	e1a03211 	lsl	r3, r1, r2
   16fe0:	e1a01000 	mov	r1, r0
   16fe4:	e3a00000 	mov	r0, #0
   16fe8:	ba000009 	blt	17014 <divideU32Return$>

00016fec <divideU32Loop$>:
   16fec:	e1510003 	cmp	r1, r3
   16ff0:	ba000003 	blt	17004 <divideU32LoopContinue$>
   16ff4:	e2800001 	add	r0, r0, #1
   16ff8:	e0511003 	subs	r1, r1, r3
   16ffc:	01a00210 	lsleq	r0, r0, r2
   17000:	0a000003 	beq	17014 <divideU32Return$>

00017004 <divideU32LoopContinue$>:
   17004:	e2522001 	subs	r2, r2, #1
   17008:	a1a030a3 	lsrge	r3, r3, #1
   1700c:	a1a00080 	lslge	r0, r0, #1
   17010:	aafffff5 	bge	16fec <divideU32Loop$>

00017014 <divideU32Return$>:
   17014:	e1a0f00e 	mov	pc, lr

00017018 <FindTag>:
   17018:	e92d4000 	push	{lr}
   1701c:	e2400001 	sub	r0, r0, #1
   17020:	e3500008 	cmp	r0, #8
   17024:	83a00000 	movhi	r0, #0
   17028:	88bd8000 	pophi	{pc}
   1702c:	e59f1054 	ldr	r1, [pc, #84]	; 17088 <tagLoop$+0x2c>

00017030 <tagReturn$>:
   17030:	e0812100 	add	r2, r1, r0, lsl #2
   17034:	e5922000 	ldr	r2, [r2]
   17038:	e3320000 	teq	r2, #0
   1703c:	11a00002 	movne	r0, r2
   17040:	18bd8000 	popne	{pc}
   17044:	e5912000 	ldr	r2, [r1]
   17048:	e3320000 	teq	r2, #0
   1704c:	13a00000 	movne	r0, #0
   17050:	18bd8000 	popne	{pc}
   17054:	e3a02c01 	mov	r2, #256	; 0x100
   17058:	e92d0010 	push	{r4}

0001705c <tagLoop$>:
   1705c:	e1d230b4 	ldrh	r3, [r2, #4]
   17060:	e2533001 	subs	r3, r3, #1
   17064:	b8bd0010 	poplt	{r4}
   17068:	bafffff0 	blt	17030 <tagReturn$>
   1706c:	e0813103 	add	r3, r1, r3, lsl #2
   17070:	e5934000 	ldr	r4, [r3]
   17074:	e3340000 	teq	r4, #0
   17078:	05832000 	streq	r2, [r3]
   1707c:	e5923000 	ldr	r3, [r2]
   17080:	e0822103 	add	r2, r2, r3, lsl #2
   17084:	eafffff4 	b	1705c <tagLoop$>
   17088:	0000a8f0 	.word	0x0000a8f0
